
STM32F103C8T6.elf:     file format elf32-littlearm

Sections:
Idx Name          Size      VMA       LMA       File off  Algn
  0 .isr_vector   0000010c  08000000  08000000  00001000  2**0
                  CONTENTS, ALLOC, LOAD, READONLY, DATA
  1 .text         00002a84  0800010c  0800010c  0000110c  2**2
                  CONTENTS, ALLOC, LOAD, READONLY, CODE
  2 .rodata       00000038  08002b90  08002b90  00003b90  2**2
                  CONTENTS, ALLOC, LOAD, READONLY, DATA
  3 .ARM.extab    00000000  08002bc8  08002bc8  00004030  2**0
                  CONTENTS
  4 .ARM          00000000  08002bc8  08002bc8  00004030  2**0
                  CONTENTS
  5 .preinit_array 00000000  08002bc8  08002bc8  00004030  2**0
                  CONTENTS, ALLOC, LOAD, DATA
  6 .init_array   00000004  08002bc8  08002bc8  00003bc8  2**2
                  CONTENTS, ALLOC, LOAD, READONLY, DATA
  7 .fini_array   00000004  08002bcc  08002bcc  00003bcc  2**2
                  CONTENTS, ALLOC, LOAD, READONLY, DATA
  8 .data         00000030  20000000  08002bd0  00004000  2**2
                  CONTENTS, ALLOC, LOAD, DATA
  9 .bss          00000184  20000030  08002c00  00004030  2**2
                  ALLOC
 10 ._user_heap_stack 00000604  200001b4  08002c00  000041b4  2**0
                  ALLOC
 11 .ARM.attributes 00000029  00000000  00000000  00004030  2**0
                  CONTENTS, READONLY
 12 .debug_info   0000a525  00000000  00000000  00004059  2**0
                  CONTENTS, READONLY, DEBUGGING, OCTETS
 13 .debug_abbrev 00001e0d  00000000  00000000  0000e57e  2**0
                  CONTENTS, READONLY, DEBUGGING, OCTETS
 14 .debug_aranges 00000bd0  00000000  00000000  00010390  2**3
                  CONTENTS, READONLY, DEBUGGING, OCTETS
 15 .debug_rnglists 00000912  00000000  00000000  00010f60  2**0
                  CONTENTS, READONLY, DEBUGGING, OCTETS
 16 .debug_macro  00017ade  00000000  00000000  00011872  2**0
                  CONTENTS, READONLY, DEBUGGING, OCTETS
 17 .debug_line   0000ce71  00000000  00000000  00029350  2**0
                  CONTENTS, READONLY, DEBUGGING, OCTETS
 18 .debug_str    000898c4  00000000  00000000  000361c1  2**0
                  CONTENTS, READONLY, DEBUGGING, OCTETS
 19 .comment      00000043  00000000  00000000  000bfa85  2**0
                  CONTENTS, READONLY
 20 .debug_frame  00003010  00000000  00000000  000bfac8  2**2
                  CONTENTS, READONLY, DEBUGGING, OCTETS
 21 .debug_line_str 0000007f  00000000  00000000  000c2ad8  2**0
                  CONTENTS, READONLY, DEBUGGING, OCTETS

Disassembly of section .text:

0800010c <__do_global_dtors_aux>:
 800010c:	b510      	push	{r4, lr}
 800010e:	4c05      	ldr	r4, [pc, #20]	@ (8000124 <__do_global_dtors_aux+0x18>)
 8000110:	7823      	ldrb	r3, [r4, #0]
 8000112:	b933      	cbnz	r3, 8000122 <__do_global_dtors_aux+0x16>
 8000114:	4b04      	ldr	r3, [pc, #16]	@ (8000128 <__do_global_dtors_aux+0x1c>)
 8000116:	b113      	cbz	r3, 800011e <__do_global_dtors_aux+0x12>
 8000118:	4804      	ldr	r0, [pc, #16]	@ (800012c <__do_global_dtors_aux+0x20>)
 800011a:	f3af 8000 	nop.w
 800011e:	2301      	movs	r3, #1
 8000120:	7023      	strb	r3, [r4, #0]
 8000122:	bd10      	pop	{r4, pc}
 8000124:	20000030 	.word	0x20000030
 8000128:	00000000 	.word	0x00000000
 800012c:	08002b78 	.word	0x08002b78

08000130 <frame_dummy>:
 8000130:	b508      	push	{r3, lr}
 8000132:	4b03      	ldr	r3, [pc, #12]	@ (8000140 <frame_dummy+0x10>)
 8000134:	b11b      	cbz	r3, 800013e <frame_dummy+0xe>
 8000136:	4903      	ldr	r1, [pc, #12]	@ (8000144 <frame_dummy+0x14>)
 8000138:	4803      	ldr	r0, [pc, #12]	@ (8000148 <frame_dummy+0x18>)
 800013a:	f3af 8000 	nop.w
 800013e:	bd08      	pop	{r3, pc}
 8000140:	00000000 	.word	0x00000000
 8000144:	20000034 	.word	0x20000034
 8000148:	08002b78 	.word	0x08002b78

0800014c <KeyPad_Scan>:
    /* Set all rows to high */
    HAL_GPIO_WritePin(GPIOB, GPIO_PIN_6 | GPIO_PIN_7 | GPIO_PIN_8 | GPIO_PIN_9, GPIO_PIN_SET);
}

/* Scan the 4x5 keypad and return the pressed key value */
uint8_t KeyPad_Scan(void) {
 800014c:	b580      	push	{r7, lr}
 800014e:	b082      	sub	sp, #8
 8000150:	af00      	add	r7, sp, #0
    uint32_t currentMillis = HAL_GetTick();
 8000152:	f000 ffcf 	bl	80010f4 <HAL_GetTick>
 8000156:	6038      	str	r0, [r7, #0]

    if (currentMillis - lastDebounceTime < DEBOUNCE_DELAY) {
 8000158:	4b24      	ldr	r3, [pc, #144]	@ (80001ec <KeyPad_Scan+0xa0>)
 800015a:	681b      	ldr	r3, [r3, #0]
 800015c:	683a      	ldr	r2, [r7, #0]
 800015e:	1ad3      	subs	r3, r2, r3
 8000160:	f5b3 7ffa 	cmp.w	r3, #500	@ 0x1f4
 8000164:	d201      	bcs.n	800016a <KeyPad_Scan+0x1e>
        return 0xFF;
 8000166:	23ff      	movs	r3, #255	@ 0xff
 8000168:	e03b      	b.n	80001e2 <KeyPad_Scan+0x96>
    }

    for (uint8_t row = 0; row < 4; row++) {
 800016a:	2300      	movs	r3, #0
 800016c:	71fb      	strb	r3, [r7, #7]
 800016e:	e034      	b.n	80001da <KeyPad_Scan+0x8e>
        /* Set all rows low */
        HAL_GPIO_WritePin(GPIOB, GPIO_PIN_6 | GPIO_PIN_7 | GPIO_PIN_8 | GPIO_PIN_9, GPIO_PIN_RESET);
 8000170:	2200      	movs	r2, #0
 8000172:	f44f 7170 	mov.w	r1, #960	@ 0x3c0
 8000176:	481e      	ldr	r0, [pc, #120]	@ (80001f0 <KeyPad_Scan+0xa4>)
 8000178:	f001 fa6f 	bl	800165a <HAL_GPIO_WritePin>

        /* Set the current row high */
        HAL_GPIO_WritePin(GPIOB, GPIO_PIN_6 << row, GPIO_PIN_SET);
 800017c:	79fb      	ldrb	r3, [r7, #7]
 800017e:	2240      	movs	r2, #64	@ 0x40
 8000180:	fa02 f303 	lsl.w	r3, r2, r3
 8000184:	b29b      	uxth	r3, r3
 8000186:	2201      	movs	r2, #1
 8000188:	4619      	mov	r1, r3
 800018a:	4819      	ldr	r0, [pc, #100]	@ (80001f0 <KeyPad_Scan+0xa4>)
 800018c:	f001 fa65 	bl	800165a <HAL_GPIO_WritePin>

        /* Read each column */
        for (uint8_t col = 0; col < 5; col++) {
 8000190:	2300      	movs	r3, #0
 8000192:	71bb      	strb	r3, [r7, #6]
 8000194:	e01b      	b.n	80001ce <KeyPad_Scan+0x82>
            if (HAL_GPIO_ReadPin(GPIOB, GPIO_PIN_0 << col) == GPIO_PIN_SET) {
 8000196:	79bb      	ldrb	r3, [r7, #6]
 8000198:	2201      	movs	r2, #1
 800019a:	fa02 f303 	lsl.w	r3, r2, r3
 800019e:	b29b      	uxth	r3, r3
 80001a0:	4619      	mov	r1, r3
 80001a2:	4813      	ldr	r0, [pc, #76]	@ (80001f0 <KeyPad_Scan+0xa4>)
 80001a4:	f001 fa42 	bl	800162c <HAL_GPIO_ReadPin>
 80001a8:	4603      	mov	r3, r0
 80001aa:	2b01      	cmp	r3, #1
 80001ac:	d10c      	bne.n	80001c8 <KeyPad_Scan+0x7c>
                lastDebounceTime = currentMillis;
 80001ae:	4a0f      	ldr	r2, [pc, #60]	@ (80001ec <KeyPad_Scan+0xa0>)
 80001b0:	683b      	ldr	r3, [r7, #0]
 80001b2:	6013      	str	r3, [r2, #0]
                return keyMap[row][col];
 80001b4:	79fa      	ldrb	r2, [r7, #7]
 80001b6:	79b9      	ldrb	r1, [r7, #6]
 80001b8:	480e      	ldr	r0, [pc, #56]	@ (80001f4 <KeyPad_Scan+0xa8>)
 80001ba:	4613      	mov	r3, r2
 80001bc:	009b      	lsls	r3, r3, #2
 80001be:	4413      	add	r3, r2
 80001c0:	4403      	add	r3, r0
 80001c2:	440b      	add	r3, r1
 80001c4:	781b      	ldrb	r3, [r3, #0]
 80001c6:	e00c      	b.n	80001e2 <KeyPad_Scan+0x96>
        for (uint8_t col = 0; col < 5; col++) {
 80001c8:	79bb      	ldrb	r3, [r7, #6]
 80001ca:	3301      	adds	r3, #1
 80001cc:	71bb      	strb	r3, [r7, #6]
 80001ce:	79bb      	ldrb	r3, [r7, #6]
 80001d0:	2b04      	cmp	r3, #4
 80001d2:	d9e0      	bls.n	8000196 <KeyPad_Scan+0x4a>
    for (uint8_t row = 0; row < 4; row++) {
 80001d4:	79fb      	ldrb	r3, [r7, #7]
 80001d6:	3301      	adds	r3, #1
 80001d8:	71fb      	strb	r3, [r7, #7]
 80001da:	79fb      	ldrb	r3, [r7, #7]
 80001dc:	2b03      	cmp	r3, #3
 80001de:	d9c7      	bls.n	8000170 <KeyPad_Scan+0x24>
            }
        }
    }

    return 0xFF;
 80001e0:	23ff      	movs	r3, #255	@ 0xff
}
 80001e2:	4618      	mov	r0, r3
 80001e4:	3708      	adds	r7, #8
 80001e6:	46bd      	mov	sp, r7
 80001e8:	bd80      	pop	{r7, pc}
 80001ea:	bf00      	nop
 80001ec:	2000004c 	.word	0x2000004c
 80001f0:	40010c00 	.word	0x40010c00
 80001f4:	08002b90 	.word	0x08002b90

080001f8 <formatTotalLiters>:

void formatTotalLiters(uint32_t total, uint32_t* buffer1, uint32_t* buffer2)
{
 80001f8:	b480      	push	{r7}
 80001fa:	b085      	sub	sp, #20
 80001fc:	af00      	add	r7, sp, #0
 80001fe:	60f8      	str	r0, [r7, #12]
 8000200:	60b9      	str	r1, [r7, #8]
 8000202:	607a      	str	r2, [r7, #4]
	if (total < 100000000) {
 8000204:	68fb      	ldr	r3, [r7, #12]
 8000206:	4a15      	ldr	r2, [pc, #84]	@ (800025c <formatTotalLiters+0x64>)
 8000208:	4293      	cmp	r3, r2
 800020a:	d815      	bhi.n	8000238 <formatTotalLiters+0x40>
		* buffer1 = total / 1000000;
 800020c:	68fb      	ldr	r3, [r7, #12]
 800020e:	4a14      	ldr	r2, [pc, #80]	@ (8000260 <formatTotalLiters+0x68>)
 8000210:	fba2 2303 	umull	r2, r3, r2, r3
 8000214:	0c9a      	lsrs	r2, r3, #18
 8000216:	68bb      	ldr	r3, [r7, #8]
 8000218:	601a      	str	r2, [r3, #0]
		* buffer2 = total % 1000000;
 800021a:	68fa      	ldr	r2, [r7, #12]
 800021c:	4b10      	ldr	r3, [pc, #64]	@ (8000260 <formatTotalLiters+0x68>)
 800021e:	fba3 1302 	umull	r1, r3, r3, r2
 8000222:	0c9b      	lsrs	r3, r3, #18
 8000224:	490f      	ldr	r1, [pc, #60]	@ (8000264 <formatTotalLiters+0x6c>)
 8000226:	fb01 f303 	mul.w	r3, r1, r3
 800022a:	1ad3      	subs	r3, r2, r3
 800022c:	687a      	ldr	r2, [r7, #4]
 800022e:	6013      	str	r3, [r2, #0]
		LEDPointFlag = 3;
 8000230:	4b0d      	ldr	r3, [pc, #52]	@ (8000268 <formatTotalLiters+0x70>)
 8000232:	2203      	movs	r2, #3
 8000234:	601a      	str	r2, [r3, #0]
	} else {
		* buffer1 = total / 100000000;
		* buffer2 = 0;
		LEDPointFlag = 2;
	}
}
 8000236:	e00c      	b.n	8000252 <formatTotalLiters+0x5a>
		* buffer1 = total / 100000000;
 8000238:	68fb      	ldr	r3, [r7, #12]
 800023a:	4a0c      	ldr	r2, [pc, #48]	@ (800026c <formatTotalLiters+0x74>)
 800023c:	fba2 2303 	umull	r2, r3, r2, r3
 8000240:	0e5a      	lsrs	r2, r3, #25
 8000242:	68bb      	ldr	r3, [r7, #8]
 8000244:	601a      	str	r2, [r3, #0]
		* buffer2 = 0;
 8000246:	687b      	ldr	r3, [r7, #4]
 8000248:	2200      	movs	r2, #0
 800024a:	601a      	str	r2, [r3, #0]
		LEDPointFlag = 2;
 800024c:	4b06      	ldr	r3, [pc, #24]	@ (8000268 <formatTotalLiters+0x70>)
 800024e:	2202      	movs	r2, #2
 8000250:	601a      	str	r2, [r3, #0]
}
 8000252:	bf00      	nop
 8000254:	3714      	adds	r7, #20
 8000256:	46bd      	mov	sp, r7
 8000258:	bc80      	pop	{r7}
 800025a:	4770      	bx	lr
 800025c:	05f5e0ff 	.word	0x05f5e0ff
 8000260:	431bde83 	.word	0x431bde83
 8000264:	000f4240 	.word	0x000f4240
 8000268:	2000001c 	.word	0x2000001c
 800026c:	55e63b89 	.word	0x55e63b89

08000270 <KeyLogic>:

void KeyLogic() {
 8000270:	b580      	push	{r7, lr}
 8000272:	af00      	add	r7, sp, #0
	keyPressed = KeyPad_Scan();
 8000274:	f7ff ff6a 	bl	800014c <KeyPad_Scan>
 8000278:	4603      	mov	r3, r0
 800027a:	461a      	mov	r2, r3
 800027c:	4b92      	ldr	r3, [pc, #584]	@ (80004c8 <KeyLogic+0x258>)
 800027e:	701a      	strb	r2, [r3, #0]
	if (keyPressed != 0xFF) {
 8000280:	4b91      	ldr	r3, [pc, #580]	@ (80004c8 <KeyLogic+0x258>)
 8000282:	781b      	ldrb	r3, [r3, #0]
 8000284:	2bff      	cmp	r3, #255	@ 0xff
 8000286:	f000 811c 	beq.w	80004c2 <KeyLogic+0x252>
		if (seqState == SEQ_NUMBER) {
 800028a:	4b90      	ldr	r3, [pc, #576]	@ (80004cc <KeyLogic+0x25c>)
 800028c:	781b      	ldrb	r3, [r3, #0]
 800028e:	2b06      	cmp	r3, #6
 8000290:	d12a      	bne.n	80002e8 <KeyLogic+0x78>
			if (keyPressed >= '0' && keyPressed <= '9') {
 8000292:	4b8d      	ldr	r3, [pc, #564]	@ (80004c8 <KeyLogic+0x258>)
 8000294:	781b      	ldrb	r3, [r3, #0]
 8000296:	2b2f      	cmp	r3, #47	@ 0x2f
 8000298:	d91c      	bls.n	80002d4 <KeyLogic+0x64>
 800029a:	4b8b      	ldr	r3, [pc, #556]	@ (80004c8 <KeyLogic+0x258>)
 800029c:	781b      	ldrb	r3, [r3, #0]
 800029e:	2b39      	cmp	r3, #57	@ 0x39
 80002a0:	d818      	bhi.n	80002d4 <KeyLogic+0x64>
				if (numberOfDigits < 6) {
 80002a2:	4b8b      	ldr	r3, [pc, #556]	@ (80004d0 <KeyLogic+0x260>)
 80002a4:	781b      	ldrb	r3, [r3, #0]
 80002a6:	2b05      	cmp	r3, #5
 80002a8:	f200 8108 	bhi.w	80004bc <KeyLogic+0x24c>
					accumulatedNumber = accumulatedNumber * 10 + (keyPressed - '0');
 80002ac:	4b89      	ldr	r3, [pc, #548]	@ (80004d4 <KeyLogic+0x264>)
 80002ae:	681a      	ldr	r2, [r3, #0]
 80002b0:	4613      	mov	r3, r2
 80002b2:	009b      	lsls	r3, r3, #2
 80002b4:	4413      	add	r3, r2
 80002b6:	005b      	lsls	r3, r3, #1
 80002b8:	461a      	mov	r2, r3
 80002ba:	4b83      	ldr	r3, [pc, #524]	@ (80004c8 <KeyLogic+0x258>)
 80002bc:	781b      	ldrb	r3, [r3, #0]
 80002be:	4413      	add	r3, r2
 80002c0:	3b30      	subs	r3, #48	@ 0x30
 80002c2:	4a84      	ldr	r2, [pc, #528]	@ (80004d4 <KeyLogic+0x264>)
 80002c4:	6013      	str	r3, [r2, #0]
					numberOfDigits++;
 80002c6:	4b82      	ldr	r3, [pc, #520]	@ (80004d0 <KeyLogic+0x260>)
 80002c8:	781b      	ldrb	r3, [r3, #0]
 80002ca:	3301      	adds	r3, #1
 80002cc:	b2da      	uxtb	r2, r3
 80002ce:	4b80      	ldr	r3, [pc, #512]	@ (80004d0 <KeyLogic+0x260>)
 80002d0:	701a      	strb	r2, [r3, #0]
				if (numberOfDigits < 6) {
 80002d2:	e0f3      	b.n	80004bc <KeyLogic+0x24c>
				}
			} else {
				seqState = SEQ_IDLE;
 80002d4:	4b7d      	ldr	r3, [pc, #500]	@ (80004cc <KeyLogic+0x25c>)
 80002d6:	2200      	movs	r2, #0
 80002d8:	701a      	strb	r2, [r3, #0]
				numberOfDigits = 0;
 80002da:	4b7d      	ldr	r3, [pc, #500]	@ (80004d0 <KeyLogic+0x260>)
 80002dc:	2200      	movs	r2, #0
 80002de:	701a      	strb	r2, [r3, #0]
				accumulatedNumber = 0;
 80002e0:	4b7c      	ldr	r3, [pc, #496]	@ (80004d4 <KeyLogic+0x264>)
 80002e2:	2200      	movs	r2, #0
 80002e4:	601a      	str	r2, [r3, #0]
 80002e6:	e0e9      	b.n	80004bc <KeyLogic+0x24c>
			}
		} else {
			switch (keyPressed) {
 80002e8:	4b77      	ldr	r3, [pc, #476]	@ (80004c8 <KeyLogic+0x258>)
 80002ea:	781b      	ldrb	r3, [r3, #0]
 80002ec:	3b24      	subs	r3, #36	@ 0x24
 80002ee:	2b30      	cmp	r3, #48	@ 0x30
 80002f0:	f200 80cb 	bhi.w	800048a <KeyLogic+0x21a>
 80002f4:	a201      	add	r2, pc, #4	@ (adr r2, 80002fc <KeyLogic+0x8c>)
 80002f6:	f852 f023 	ldr.w	pc, [r2, r3, lsl #2]
 80002fa:	bf00      	nop
 80002fc:	0800042b 	.word	0x0800042b
 8000300:	0800048b 	.word	0x0800048b
 8000304:	0800048b 	.word	0x0800048b
 8000308:	0800048b 	.word	0x0800048b
 800030c:	0800048b 	.word	0x0800048b
 8000310:	0800048b 	.word	0x0800048b
 8000314:	0800048b 	.word	0x0800048b
 8000318:	0800048b 	.word	0x0800048b
 800031c:	0800048b 	.word	0x0800048b
 8000320:	0800048b 	.word	0x0800048b
 8000324:	0800048b 	.word	0x0800048b
 8000328:	0800048b 	.word	0x0800048b
 800032c:	0800048b 	.word	0x0800048b
 8000330:	0800048b 	.word	0x0800048b
 8000334:	0800048b 	.word	0x0800048b
 8000338:	0800048b 	.word	0x0800048b
 800033c:	0800048b 	.word	0x0800048b
 8000340:	0800048b 	.word	0x0800048b
 8000344:	0800048b 	.word	0x0800048b
 8000348:	0800048b 	.word	0x0800048b
 800034c:	0800048b 	.word	0x0800048b
 8000350:	0800048b 	.word	0x0800048b
 8000354:	0800048b 	.word	0x0800048b
 8000358:	0800048b 	.word	0x0800048b
 800035c:	0800048b 	.word	0x0800048b
 8000360:	0800048b 	.word	0x0800048b
 8000364:	0800048b 	.word	0x0800048b
 8000368:	0800048b 	.word	0x0800048b
 800036c:	0800048b 	.word	0x0800048b
 8000370:	080003c1 	.word	0x080003c1
 8000374:	080003d7 	.word	0x080003d7
 8000378:	080003eb 	.word	0x080003eb
 800037c:	0800045b 	.word	0x0800045b
 8000380:	080003ff 	.word	0x080003ff
 8000384:	08000473 	.word	0x08000473
 8000388:	0800048b 	.word	0x0800048b
 800038c:	0800048b 	.word	0x0800048b
 8000390:	0800048b 	.word	0x0800048b
 8000394:	0800048b 	.word	0x0800048b
 8000398:	0800048b 	.word	0x0800048b
 800039c:	08000443 	.word	0x08000443
 80003a0:	0800048b 	.word	0x0800048b
 80003a4:	0800048b 	.word	0x0800048b
 80003a8:	0800048b 	.word	0x0800048b
 80003ac:	0800048b 	.word	0x0800048b
 80003b0:	0800048b 	.word	0x0800048b
 80003b4:	0800048b 	.word	0x0800048b
 80003b8:	0800048b 	.word	0x0800048b
 80003bc:	08000413 	.word	0x08000413
				case 'A':
					SevenSegBuffer[0] = 0;
 80003c0:	4b45      	ldr	r3, [pc, #276]	@ (80004d8 <KeyLogic+0x268>)
 80003c2:	2200      	movs	r2, #0
 80003c4:	601a      	str	r2, [r3, #0]
					SevenSegBuffer[1] = 10000;
 80003c6:	4b44      	ldr	r3, [pc, #272]	@ (80004d8 <KeyLogic+0x268>)
 80003c8:	f242 7210 	movw	r2, #10000	@ 0x2710
 80003cc:	605a      	str	r2, [r3, #4]
					SevenSegBuffer[2] = 0;
 80003ce:	4b42      	ldr	r3, [pc, #264]	@ (80004d8 <KeyLogic+0x268>)
 80003d0:	2200      	movs	r2, #0
 80003d2:	609a      	str	r2, [r3, #8]
					break;
 80003d4:	e072      	b.n	80004bc <KeyLogic+0x24c>
				case 'B':
					SevenSegBuffer[0] = 0;
 80003d6:	4b40      	ldr	r3, [pc, #256]	@ (80004d8 <KeyLogic+0x268>)
 80003d8:	2200      	movs	r2, #0
 80003da:	601a      	str	r2, [r3, #0]
					SevenSegBuffer[1] = 100000;
 80003dc:	4b3e      	ldr	r3, [pc, #248]	@ (80004d8 <KeyLogic+0x268>)
 80003de:	4a3f      	ldr	r2, [pc, #252]	@ (80004dc <KeyLogic+0x26c>)
 80003e0:	605a      	str	r2, [r3, #4]
					SevenSegBuffer[2] = 0;
 80003e2:	4b3d      	ldr	r3, [pc, #244]	@ (80004d8 <KeyLogic+0x268>)
 80003e4:	2200      	movs	r2, #0
 80003e6:	609a      	str	r2, [r3, #8]
					break;
 80003e8:	e068      	b.n	80004bc <KeyLogic+0x24c>
				case 'C':
					SevenSegBuffer[0] = 0;
 80003ea:	4b3b      	ldr	r3, [pc, #236]	@ (80004d8 <KeyLogic+0x268>)
 80003ec:	2200      	movs	r2, #0
 80003ee:	601a      	str	r2, [r3, #0]
					SevenSegBuffer[1] = 0;
 80003f0:	4b39      	ldr	r3, [pc, #228]	@ (80004d8 <KeyLogic+0x268>)
 80003f2:	2200      	movs	r2, #0
 80003f4:	605a      	str	r2, [r3, #4]
					SevenSegBuffer[2] = 1;
 80003f6:	4b38      	ldr	r3, [pc, #224]	@ (80004d8 <KeyLogic+0x268>)
 80003f8:	2201      	movs	r2, #1
 80003fa:	609a      	str	r2, [r3, #8]
					break;
 80003fc:	e05e      	b.n	80004bc <KeyLogic+0x24c>
				case 'E':
					SevenSegBuffer[0] = 0;
 80003fe:	4b36      	ldr	r3, [pc, #216]	@ (80004d8 <KeyLogic+0x268>)
 8000400:	2200      	movs	r2, #0
 8000402:	601a      	str	r2, [r3, #0]
					SevenSegBuffer[1] = 0;
 8000404:	4b34      	ldr	r3, [pc, #208]	@ (80004d8 <KeyLogic+0x268>)
 8000406:	2200      	movs	r2, #0
 8000408:	605a      	str	r2, [r3, #4]
					SevenSegBuffer[2] = 100;
 800040a:	4b33      	ldr	r3, [pc, #204]	@ (80004d8 <KeyLogic+0x268>)
 800040c:	2264      	movs	r2, #100	@ 0x64
 800040e:	609a      	str	r2, [r3, #8]
					break;
 8000410:	e054      	b.n	80004bc <KeyLogic+0x24c>
				case 'T':
					if (seqState == SEQ_IDLE) {
 8000412:	4b2e      	ldr	r3, [pc, #184]	@ (80004cc <KeyLogic+0x25c>)
 8000414:	781b      	ldrb	r3, [r3, #0]
 8000416:	2b00      	cmp	r3, #0
 8000418:	d103      	bne.n	8000422 <KeyLogic+0x1b2>
						seqState = SEQ_PRESSED_T;
 800041a:	4b2c      	ldr	r3, [pc, #176]	@ (80004cc <KeyLogic+0x25c>)
 800041c:	2201      	movs	r2, #1
 800041e:	701a      	strb	r2, [r3, #0]
					} else {
						seqState = SEQ_IDLE;
					}
					break;
 8000420:	e04c      	b.n	80004bc <KeyLogic+0x24c>
						seqState = SEQ_IDLE;
 8000422:	4b2a      	ldr	r3, [pc, #168]	@ (80004cc <KeyLogic+0x25c>)
 8000424:	2200      	movs	r2, #0
 8000426:	701a      	strb	r2, [r3, #0]
					break;
 8000428:	e048      	b.n	80004bc <KeyLogic+0x24c>
				case '$':
					if (seqState == SEQ_PRESSED_T) {
 800042a:	4b28      	ldr	r3, [pc, #160]	@ (80004cc <KeyLogic+0x25c>)
 800042c:	781b      	ldrb	r3, [r3, #0]
 800042e:	2b01      	cmp	r3, #1
 8000430:	d103      	bne.n	800043a <KeyLogic+0x1ca>
						seqState = SEQ_PRESSED_T_$;
 8000432:	4b26      	ldr	r3, [pc, #152]	@ (80004cc <KeyLogic+0x25c>)
 8000434:	2203      	movs	r2, #3
 8000436:	701a      	strb	r2, [r3, #0]
					} else {
						seqState = SEQ_IDLE;
					}
					break;
 8000438:	e040      	b.n	80004bc <KeyLogic+0x24c>
						seqState = SEQ_IDLE;
 800043a:	4b24      	ldr	r3, [pc, #144]	@ (80004cc <KeyLogic+0x25c>)
 800043c:	2200      	movs	r2, #0
 800043e:	701a      	strb	r2, [r3, #0]
					break;
 8000440:	e03c      	b.n	80004bc <KeyLogic+0x24c>
				case 'L':
					if (seqState == SEQ_PRESSED_T) {
 8000442:	4b22      	ldr	r3, [pc, #136]	@ (80004cc <KeyLogic+0x25c>)
 8000444:	781b      	ldrb	r3, [r3, #0]
 8000446:	2b01      	cmp	r3, #1
 8000448:	d103      	bne.n	8000452 <KeyLogic+0x1e2>
						seqState = SEQ_PRESSED_T_L;
 800044a:	4b20      	ldr	r3, [pc, #128]	@ (80004cc <KeyLogic+0x25c>)
 800044c:	2202      	movs	r2, #2
 800044e:	701a      	strb	r2, [r3, #0]
					} else {
						seqState = SEQ_IDLE;
					}
					break;
 8000450:	e034      	b.n	80004bc <KeyLogic+0x24c>
						seqState = SEQ_IDLE;
 8000452:	4b1e      	ldr	r3, [pc, #120]	@ (80004cc <KeyLogic+0x25c>)
 8000454:	2200      	movs	r2, #0
 8000456:	701a      	strb	r2, [r3, #0]
					break;
 8000458:	e030      	b.n	80004bc <KeyLogic+0x24c>
				case 'D':
					if (seqState == SEQ_PRESSED_T) {
 800045a:	4b1c      	ldr	r3, [pc, #112]	@ (80004cc <KeyLogic+0x25c>)
 800045c:	781b      	ldrb	r3, [r3, #0]
 800045e:	2b01      	cmp	r3, #1
 8000460:	d103      	bne.n	800046a <KeyLogic+0x1fa>
						seqState = SEQ_PRESSED_T_F3;
 8000462:	4b1a      	ldr	r3, [pc, #104]	@ (80004cc <KeyLogic+0x25c>)
 8000464:	2204      	movs	r2, #4
 8000466:	701a      	strb	r2, [r3, #0]
					} else {
						seqState = SEQ_IDLE;
					}
					break;
 8000468:	e028      	b.n	80004bc <KeyLogic+0x24c>
						seqState = SEQ_IDLE;
 800046a:	4b18      	ldr	r3, [pc, #96]	@ (80004cc <KeyLogic+0x25c>)
 800046c:	2200      	movs	r2, #0
 800046e:	701a      	strb	r2, [r3, #0]
					break;
 8000470:	e024      	b.n	80004bc <KeyLogic+0x24c>
				case 'F':
					if (seqState == SEQ_PRESSED_T) {
 8000472:	4b16      	ldr	r3, [pc, #88]	@ (80004cc <KeyLogic+0x25c>)
 8000474:	781b      	ldrb	r3, [r3, #0]
 8000476:	2b01      	cmp	r3, #1
 8000478:	d103      	bne.n	8000482 <KeyLogic+0x212>
						seqState = SEQ_PRESSED_T_F4;
 800047a:	4b14      	ldr	r3, [pc, #80]	@ (80004cc <KeyLogic+0x25c>)
 800047c:	2205      	movs	r2, #5
 800047e:	701a      	strb	r2, [r3, #0]
					} else {
						seqState = SEQ_IDLE;
					}
					break;
 8000480:	e01c      	b.n	80004bc <KeyLogic+0x24c>
						seqState = SEQ_IDLE;
 8000482:	4b12      	ldr	r3, [pc, #72]	@ (80004cc <KeyLogic+0x25c>)
 8000484:	2200      	movs	r2, #0
 8000486:	701a      	strb	r2, [r3, #0]
					break;
 8000488:	e018      	b.n	80004bc <KeyLogic+0x24c>
				default:
					if (keyPressed >= '0' && keyPressed <= '9') {
 800048a:	4b0f      	ldr	r3, [pc, #60]	@ (80004c8 <KeyLogic+0x258>)
 800048c:	781b      	ldrb	r3, [r3, #0]
 800048e:	2b2f      	cmp	r3, #47	@ 0x2f
 8000490:	d910      	bls.n	80004b4 <KeyLogic+0x244>
 8000492:	4b0d      	ldr	r3, [pc, #52]	@ (80004c8 <KeyLogic+0x258>)
 8000494:	781b      	ldrb	r3, [r3, #0]
 8000496:	2b39      	cmp	r3, #57	@ 0x39
 8000498:	d80c      	bhi.n	80004b4 <KeyLogic+0x244>
						seqState = SEQ_NUMBER;
 800049a:	4b0c      	ldr	r3, [pc, #48]	@ (80004cc <KeyLogic+0x25c>)
 800049c:	2206      	movs	r2, #6
 800049e:	701a      	strb	r2, [r3, #0]
						accumulatedNumber = keyPressed - '0';
 80004a0:	4b09      	ldr	r3, [pc, #36]	@ (80004c8 <KeyLogic+0x258>)
 80004a2:	781b      	ldrb	r3, [r3, #0]
 80004a4:	3b30      	subs	r3, #48	@ 0x30
 80004a6:	461a      	mov	r2, r3
 80004a8:	4b0a      	ldr	r3, [pc, #40]	@ (80004d4 <KeyLogic+0x264>)
 80004aa:	601a      	str	r2, [r3, #0]
						numberOfDigits = 1;
 80004ac:	4b08      	ldr	r3, [pc, #32]	@ (80004d0 <KeyLogic+0x260>)
 80004ae:	2201      	movs	r2, #1
 80004b0:	701a      	strb	r2, [r3, #0]
					} else {
						seqState = SEQ_IDLE;
					}
					break;
 80004b2:	e002      	b.n	80004ba <KeyLogic+0x24a>
						seqState = SEQ_IDLE;
 80004b4:	4b05      	ldr	r3, [pc, #20]	@ (80004cc <KeyLogic+0x25c>)
 80004b6:	2200      	movs	r2, #0
 80004b8:	701a      	strb	r2, [r3, #0]
					break;
 80004ba:	bf00      	nop
			}
		}
		keyPressed = 0xFF;
 80004bc:	4b02      	ldr	r3, [pc, #8]	@ (80004c8 <KeyLogic+0x258>)
 80004be:	22ff      	movs	r2, #255	@ 0xff
 80004c0:	701a      	strb	r2, [r3, #0]
	}
}
 80004c2:	bf00      	nop
 80004c4:	bd80      	pop	{r7, pc}
 80004c6:	bf00      	nop
 80004c8:	20000020 	.word	0x20000020
 80004cc:	20000060 	.word	0x20000060
 80004d0:	20000054 	.word	0x20000054
 80004d4:	20000050 	.word	0x20000050
 80004d8:	2000000c 	.word	0x2000000c
 80004dc:	000186a0 	.word	0x000186a0

080004e0 <KeyLogic_Action>:

void KeyLogic_Action() {
 80004e0:	b580      	push	{r7, lr}
 80004e2:	af00      	add	r7, sp, #0
    switch (seqState) {
 80004e4:	4b3a      	ldr	r3, [pc, #232]	@ (80005d0 <KeyLogic_Action+0xf0>)
 80004e6:	781b      	ldrb	r3, [r3, #0]
 80004e8:	2b06      	cmp	r3, #6
 80004ea:	d864      	bhi.n	80005b6 <KeyLogic_Action+0xd6>
 80004ec:	a201      	add	r2, pc, #4	@ (adr r2, 80004f4 <KeyLogic_Action+0x14>)
 80004ee:	f852 f023 	ldr.w	pc, [r2, r3, lsl #2]
 80004f2:	bf00      	nop
 80004f4:	08000511 	.word	0x08000511
 80004f8:	08000525 	.word	0x08000525
 80004fc:	0800054d 	.word	0x0800054d
 8000500:	08000539 	.word	0x08000539
 8000504:	08000573 	.word	0x08000573
 8000508:	08000587 	.word	0x08000587
 800050c:	0800059b 	.word	0x0800059b
        case SEQ_IDLE:
            SevenSegBuffer[0] = 0;
 8000510:	4b30      	ldr	r3, [pc, #192]	@ (80005d4 <KeyLogic_Action+0xf4>)
 8000512:	2200      	movs	r2, #0
 8000514:	601a      	str	r2, [r3, #0]
            SevenSegBuffer[1] = 0;
 8000516:	4b2f      	ldr	r3, [pc, #188]	@ (80005d4 <KeyLogic_Action+0xf4>)
 8000518:	2200      	movs	r2, #0
 800051a:	605a      	str	r2, [r3, #4]
            SevenSegBuffer[2] = 0;
 800051c:	4b2d      	ldr	r3, [pc, #180]	@ (80005d4 <KeyLogic_Action+0xf4>)
 800051e:	2200      	movs	r2, #0
 8000520:	609a      	str	r2, [r3, #8]
            break;
 8000522:	e052      	b.n	80005ca <KeyLogic_Action+0xea>
        case SEQ_PRESSED_T:
            SevenSegBuffer[0] = 0;
 8000524:	4b2b      	ldr	r3, [pc, #172]	@ (80005d4 <KeyLogic_Action+0xf4>)
 8000526:	2200      	movs	r2, #0
 8000528:	601a      	str	r2, [r3, #0]
            SevenSegBuffer[1] = 0;
 800052a:	4b2a      	ldr	r3, [pc, #168]	@ (80005d4 <KeyLogic_Action+0xf4>)
 800052c:	2200      	movs	r2, #0
 800052e:	605a      	str	r2, [r3, #4]
            SevenSegBuffer[2] = 999999;
 8000530:	4b28      	ldr	r3, [pc, #160]	@ (80005d4 <KeyLogic_Action+0xf4>)
 8000532:	4a29      	ldr	r2, [pc, #164]	@ (80005d8 <KeyLogic_Action+0xf8>)
 8000534:	609a      	str	r2, [r3, #8]
            break;
 8000536:	e048      	b.n	80005ca <KeyLogic_Action+0xea>
        case SEQ_PRESSED_T_$:
            SevenSegBuffer[0] = 0;
 8000538:	4b26      	ldr	r3, [pc, #152]	@ (80005d4 <KeyLogic_Action+0xf4>)
 800053a:	2200      	movs	r2, #0
 800053c:	601a      	str	r2, [r3, #0]
            SevenSegBuffer[1] = 0;
 800053e:	4b25      	ldr	r3, [pc, #148]	@ (80005d4 <KeyLogic_Action+0xf4>)
 8000540:	2200      	movs	r2, #0
 8000542:	605a      	str	r2, [r3, #4]
            SevenSegBuffer[2] = 111111;
 8000544:	4b23      	ldr	r3, [pc, #140]	@ (80005d4 <KeyLogic_Action+0xf4>)
 8000546:	4a25      	ldr	r2, [pc, #148]	@ (80005dc <KeyLogic_Action+0xfc>)
 8000548:	609a      	str	r2, [r3, #8]
            break;
 800054a:	e03e      	b.n	80005ca <KeyLogic_Action+0xea>
        case SEQ_PRESSED_T_L:
        	formatTotalLiters(totalLiters, &row1, &row2);
 800054c:	4b24      	ldr	r3, [pc, #144]	@ (80005e0 <KeyLogic_Action+0x100>)
 800054e:	681b      	ldr	r3, [r3, #0]
 8000550:	4a24      	ldr	r2, [pc, #144]	@ (80005e4 <KeyLogic_Action+0x104>)
 8000552:	4925      	ldr	r1, [pc, #148]	@ (80005e8 <KeyLogic_Action+0x108>)
 8000554:	4618      	mov	r0, r3
 8000556:	f7ff fe4f 	bl	80001f8 <formatTotalLiters>
            SevenSegBuffer[0] = row1;
 800055a:	4b23      	ldr	r3, [pc, #140]	@ (80005e8 <KeyLogic_Action+0x108>)
 800055c:	681b      	ldr	r3, [r3, #0]
 800055e:	4a1d      	ldr	r2, [pc, #116]	@ (80005d4 <KeyLogic_Action+0xf4>)
 8000560:	6013      	str	r3, [r2, #0]
            SevenSegBuffer[1] = row2;
 8000562:	4b20      	ldr	r3, [pc, #128]	@ (80005e4 <KeyLogic_Action+0x104>)
 8000564:	681b      	ldr	r3, [r3, #0]
 8000566:	4a1b      	ldr	r2, [pc, #108]	@ (80005d4 <KeyLogic_Action+0xf4>)
 8000568:	6053      	str	r3, [r2, #4]
            SevenSegBuffer[2] = 0;
 800056a:	4b1a      	ldr	r3, [pc, #104]	@ (80005d4 <KeyLogic_Action+0xf4>)
 800056c:	2200      	movs	r2, #0
 800056e:	609a      	str	r2, [r3, #8]
            break;
 8000570:	e02b      	b.n	80005ca <KeyLogic_Action+0xea>
        case SEQ_PRESSED_T_F3:
            SevenSegBuffer[0] = 333333;
 8000572:	4b18      	ldr	r3, [pc, #96]	@ (80005d4 <KeyLogic_Action+0xf4>)
 8000574:	4a1d      	ldr	r2, [pc, #116]	@ (80005ec <KeyLogic_Action+0x10c>)
 8000576:	601a      	str	r2, [r3, #0]
            SevenSegBuffer[1] = 0;
 8000578:	4b16      	ldr	r3, [pc, #88]	@ (80005d4 <KeyLogic_Action+0xf4>)
 800057a:	2200      	movs	r2, #0
 800057c:	605a      	str	r2, [r3, #4]
            SevenSegBuffer[2] = 0;
 800057e:	4b15      	ldr	r3, [pc, #84]	@ (80005d4 <KeyLogic_Action+0xf4>)
 8000580:	2200      	movs	r2, #0
 8000582:	609a      	str	r2, [r3, #8]
            break;
 8000584:	e021      	b.n	80005ca <KeyLogic_Action+0xea>
        case SEQ_PRESSED_T_F4:
            SevenSegBuffer[0] = 444444;
 8000586:	4b13      	ldr	r3, [pc, #76]	@ (80005d4 <KeyLogic_Action+0xf4>)
 8000588:	4a19      	ldr	r2, [pc, #100]	@ (80005f0 <KeyLogic_Action+0x110>)
 800058a:	601a      	str	r2, [r3, #0]
            SevenSegBuffer[1] = 0;
 800058c:	4b11      	ldr	r3, [pc, #68]	@ (80005d4 <KeyLogic_Action+0xf4>)
 800058e:	2200      	movs	r2, #0
 8000590:	605a      	str	r2, [r3, #4]
            SevenSegBuffer[2] = 0;
 8000592:	4b10      	ldr	r3, [pc, #64]	@ (80005d4 <KeyLogic_Action+0xf4>)
 8000594:	2200      	movs	r2, #0
 8000596:	609a      	str	r2, [r3, #8]
            break;
 8000598:	e017      	b.n	80005ca <KeyLogic_Action+0xea>
        case SEQ_NUMBER:
			SevenSegBuffer[0] = accumulatedNumber;
 800059a:	4b16      	ldr	r3, [pc, #88]	@ (80005f4 <KeyLogic_Action+0x114>)
 800059c:	681b      	ldr	r3, [r3, #0]
 800059e:	4a0d      	ldr	r2, [pc, #52]	@ (80005d4 <KeyLogic_Action+0xf4>)
 80005a0:	6013      	str	r3, [r2, #0]
			SevenSegBuffer[1] = 0;
 80005a2:	4b0c      	ldr	r3, [pc, #48]	@ (80005d4 <KeyLogic_Action+0xf4>)
 80005a4:	2200      	movs	r2, #0
 80005a6:	605a      	str	r2, [r3, #4]
			SevenSegBuffer[2] = 0;
 80005a8:	4b0a      	ldr	r3, [pc, #40]	@ (80005d4 <KeyLogic_Action+0xf4>)
 80005aa:	2200      	movs	r2, #0
 80005ac:	609a      	str	r2, [r3, #8]
        	LEDPointFlag = 6;
 80005ae:	4b12      	ldr	r3, [pc, #72]	@ (80005f8 <KeyLogic_Action+0x118>)
 80005b0:	2206      	movs	r2, #6
 80005b2:	601a      	str	r2, [r3, #0]
			break;
 80005b4:	e009      	b.n	80005ca <KeyLogic_Action+0xea>
        default:
            SevenSegBuffer[0] = 0;
 80005b6:	4b07      	ldr	r3, [pc, #28]	@ (80005d4 <KeyLogic_Action+0xf4>)
 80005b8:	2200      	movs	r2, #0
 80005ba:	601a      	str	r2, [r3, #0]
            SevenSegBuffer[1] = 0;
 80005bc:	4b05      	ldr	r3, [pc, #20]	@ (80005d4 <KeyLogic_Action+0xf4>)
 80005be:	2200      	movs	r2, #0
 80005c0:	605a      	str	r2, [r3, #4]
            SevenSegBuffer[2] = 0;
 80005c2:	4b04      	ldr	r3, [pc, #16]	@ (80005d4 <KeyLogic_Action+0xf4>)
 80005c4:	2200      	movs	r2, #0
 80005c6:	609a      	str	r2, [r3, #8]
            break;
 80005c8:	bf00      	nop
    }
}
 80005ca:	bf00      	nop
 80005cc:	bd80      	pop	{r7, pc}
 80005ce:	bf00      	nop
 80005d0:	20000060 	.word	0x20000060
 80005d4:	2000000c 	.word	0x2000000c
 80005d8:	000f423f 	.word	0x000f423f
 80005dc:	0001b207 	.word	0x0001b207
 80005e0:	20000018 	.word	0x20000018
 80005e4:	2000005c 	.word	0x2000005c
 80005e8:	20000058 	.word	0x20000058
 80005ec:	00051615 	.word	0x00051615
 80005f0:	0006c81c 	.word	0x0006c81c
 80005f4:	20000050 	.word	0x20000050
 80005f8:	2000001c 	.word	0x2000001c

080005fc <SevenSegLEDsHandler>:

uint8_t SevenSegScanState=0;
uint32_t SevenSegBuffer[3]={123456, 654321, 987654};


uint8_t* SevenSegLEDsHandler(uint32_t* buffer, uint8_t scan_state) {
 80005fc:	b480      	push	{r7}
 80005fe:	b083      	sub	sp, #12
 8000600:	af00      	add	r7, sp, #0
 8000602:	6078      	str	r0, [r7, #4]
 8000604:	460b      	mov	r3, r1
 8000606:	70fb      	strb	r3, [r7, #3]
    static uint8_t output[3];
    switch (scan_state) {
 8000608:	78fb      	ldrb	r3, [r7, #3]
 800060a:	2b05      	cmp	r3, #5
 800060c:	f200 815d 	bhi.w	80008ca <SevenSegLEDsHandler+0x2ce>
 8000610:	a201      	add	r2, pc, #4	@ (adr r2, 8000618 <SevenSegLEDsHandler+0x1c>)
 8000612:	f852 f023 	ldr.w	pc, [r2, r3, lsl #2]
 8000616:	bf00      	nop
 8000618:	08000631 	.word	0x08000631
 800061c:	0800068b 	.word	0x0800068b
 8000620:	080006fd 	.word	0x080006fd
 8000624:	0800076f 	.word	0x0800076f
 8000628:	080007e1 	.word	0x080007e1
 800062c:	08000853 	.word	0x08000853
        case 0:
            output[0] = buffer[0] % 10;
 8000630:	687b      	ldr	r3, [r7, #4]
 8000632:	6819      	ldr	r1, [r3, #0]
 8000634:	4ba8      	ldr	r3, [pc, #672]	@ (80008d8 <SevenSegLEDsHandler+0x2dc>)
 8000636:	fba3 2301 	umull	r2, r3, r3, r1
 800063a:	08da      	lsrs	r2, r3, #3
 800063c:	4613      	mov	r3, r2
 800063e:	009b      	lsls	r3, r3, #2
 8000640:	4413      	add	r3, r2
 8000642:	005b      	lsls	r3, r3, #1
 8000644:	1aca      	subs	r2, r1, r3
 8000646:	b2d2      	uxtb	r2, r2
 8000648:	4ba4      	ldr	r3, [pc, #656]	@ (80008dc <SevenSegLEDsHandler+0x2e0>)
 800064a:	701a      	strb	r2, [r3, #0]
            output[1] = buffer[1] % 10;
 800064c:	687b      	ldr	r3, [r7, #4]
 800064e:	3304      	adds	r3, #4
 8000650:	6819      	ldr	r1, [r3, #0]
 8000652:	4ba1      	ldr	r3, [pc, #644]	@ (80008d8 <SevenSegLEDsHandler+0x2dc>)
 8000654:	fba3 2301 	umull	r2, r3, r3, r1
 8000658:	08da      	lsrs	r2, r3, #3
 800065a:	4613      	mov	r3, r2
 800065c:	009b      	lsls	r3, r3, #2
 800065e:	4413      	add	r3, r2
 8000660:	005b      	lsls	r3, r3, #1
 8000662:	1aca      	subs	r2, r1, r3
 8000664:	b2d2      	uxtb	r2, r2
 8000666:	4b9d      	ldr	r3, [pc, #628]	@ (80008dc <SevenSegLEDsHandler+0x2e0>)
 8000668:	705a      	strb	r2, [r3, #1]
            output[2] = buffer[2] % 10;
 800066a:	687b      	ldr	r3, [r7, #4]
 800066c:	3308      	adds	r3, #8
 800066e:	6819      	ldr	r1, [r3, #0]
 8000670:	4b99      	ldr	r3, [pc, #612]	@ (80008d8 <SevenSegLEDsHandler+0x2dc>)
 8000672:	fba3 2301 	umull	r2, r3, r3, r1
 8000676:	08da      	lsrs	r2, r3, #3
 8000678:	4613      	mov	r3, r2
 800067a:	009b      	lsls	r3, r3, #2
 800067c:	4413      	add	r3, r2
 800067e:	005b      	lsls	r3, r3, #1
 8000680:	1aca      	subs	r2, r1, r3
 8000682:	b2d2      	uxtb	r2, r2
 8000684:	4b95      	ldr	r3, [pc, #596]	@ (80008dc <SevenSegLEDsHandler+0x2e0>)
 8000686:	709a      	strb	r2, [r3, #2]
            break;
 8000688:	e11f      	b.n	80008ca <SevenSegLEDsHandler+0x2ce>
        case 1:
            output[0] = (buffer[0] / 10) % 10;
 800068a:	687b      	ldr	r3, [r7, #4]
 800068c:	681b      	ldr	r3, [r3, #0]
 800068e:	4a92      	ldr	r2, [pc, #584]	@ (80008d8 <SevenSegLEDsHandler+0x2dc>)
 8000690:	fba2 2303 	umull	r2, r3, r2, r3
 8000694:	08d9      	lsrs	r1, r3, #3
 8000696:	4b90      	ldr	r3, [pc, #576]	@ (80008d8 <SevenSegLEDsHandler+0x2dc>)
 8000698:	fba3 2301 	umull	r2, r3, r3, r1
 800069c:	08da      	lsrs	r2, r3, #3
 800069e:	4613      	mov	r3, r2
 80006a0:	009b      	lsls	r3, r3, #2
 80006a2:	4413      	add	r3, r2
 80006a4:	005b      	lsls	r3, r3, #1
 80006a6:	1aca      	subs	r2, r1, r3
 80006a8:	b2d2      	uxtb	r2, r2
 80006aa:	4b8c      	ldr	r3, [pc, #560]	@ (80008dc <SevenSegLEDsHandler+0x2e0>)
 80006ac:	701a      	strb	r2, [r3, #0]
            output[1] = (buffer[1] / 10) % 10;
 80006ae:	687b      	ldr	r3, [r7, #4]
 80006b0:	3304      	adds	r3, #4
 80006b2:	681b      	ldr	r3, [r3, #0]
 80006b4:	4a88      	ldr	r2, [pc, #544]	@ (80008d8 <SevenSegLEDsHandler+0x2dc>)
 80006b6:	fba2 2303 	umull	r2, r3, r2, r3
 80006ba:	08d9      	lsrs	r1, r3, #3
 80006bc:	4b86      	ldr	r3, [pc, #536]	@ (80008d8 <SevenSegLEDsHandler+0x2dc>)
 80006be:	fba3 2301 	umull	r2, r3, r3, r1
 80006c2:	08da      	lsrs	r2, r3, #3
 80006c4:	4613      	mov	r3, r2
 80006c6:	009b      	lsls	r3, r3, #2
 80006c8:	4413      	add	r3, r2
 80006ca:	005b      	lsls	r3, r3, #1
 80006cc:	1aca      	subs	r2, r1, r3
 80006ce:	b2d2      	uxtb	r2, r2
 80006d0:	4b82      	ldr	r3, [pc, #520]	@ (80008dc <SevenSegLEDsHandler+0x2e0>)
 80006d2:	705a      	strb	r2, [r3, #1]
            output[2] = (buffer[2] / 10) % 10;
 80006d4:	687b      	ldr	r3, [r7, #4]
 80006d6:	3308      	adds	r3, #8
 80006d8:	681b      	ldr	r3, [r3, #0]
 80006da:	4a7f      	ldr	r2, [pc, #508]	@ (80008d8 <SevenSegLEDsHandler+0x2dc>)
 80006dc:	fba2 2303 	umull	r2, r3, r2, r3
 80006e0:	08d9      	lsrs	r1, r3, #3
 80006e2:	4b7d      	ldr	r3, [pc, #500]	@ (80008d8 <SevenSegLEDsHandler+0x2dc>)
 80006e4:	fba3 2301 	umull	r2, r3, r3, r1
 80006e8:	08da      	lsrs	r2, r3, #3
 80006ea:	4613      	mov	r3, r2
 80006ec:	009b      	lsls	r3, r3, #2
 80006ee:	4413      	add	r3, r2
 80006f0:	005b      	lsls	r3, r3, #1
 80006f2:	1aca      	subs	r2, r1, r3
 80006f4:	b2d2      	uxtb	r2, r2
 80006f6:	4b79      	ldr	r3, [pc, #484]	@ (80008dc <SevenSegLEDsHandler+0x2e0>)
 80006f8:	709a      	strb	r2, [r3, #2]
            break;
 80006fa:	e0e6      	b.n	80008ca <SevenSegLEDsHandler+0x2ce>
        case 2:
            output[0] = (buffer[0] / 100) % 10;
 80006fc:	687b      	ldr	r3, [r7, #4]
 80006fe:	681b      	ldr	r3, [r3, #0]
 8000700:	4a77      	ldr	r2, [pc, #476]	@ (80008e0 <SevenSegLEDsHandler+0x2e4>)
 8000702:	fba2 2303 	umull	r2, r3, r2, r3
 8000706:	0959      	lsrs	r1, r3, #5
 8000708:	4b73      	ldr	r3, [pc, #460]	@ (80008d8 <SevenSegLEDsHandler+0x2dc>)
 800070a:	fba3 2301 	umull	r2, r3, r3, r1
 800070e:	08da      	lsrs	r2, r3, #3
 8000710:	4613      	mov	r3, r2
 8000712:	009b      	lsls	r3, r3, #2
 8000714:	4413      	add	r3, r2
 8000716:	005b      	lsls	r3, r3, #1
 8000718:	1aca      	subs	r2, r1, r3
 800071a:	b2d2      	uxtb	r2, r2
 800071c:	4b6f      	ldr	r3, [pc, #444]	@ (80008dc <SevenSegLEDsHandler+0x2e0>)
 800071e:	701a      	strb	r2, [r3, #0]
            output[1] = (buffer[1] / 100) % 10;
 8000720:	687b      	ldr	r3, [r7, #4]
 8000722:	3304      	adds	r3, #4
 8000724:	681b      	ldr	r3, [r3, #0]
 8000726:	4a6e      	ldr	r2, [pc, #440]	@ (80008e0 <SevenSegLEDsHandler+0x2e4>)
 8000728:	fba2 2303 	umull	r2, r3, r2, r3
 800072c:	0959      	lsrs	r1, r3, #5
 800072e:	4b6a      	ldr	r3, [pc, #424]	@ (80008d8 <SevenSegLEDsHandler+0x2dc>)
 8000730:	fba3 2301 	umull	r2, r3, r3, r1
 8000734:	08da      	lsrs	r2, r3, #3
 8000736:	4613      	mov	r3, r2
 8000738:	009b      	lsls	r3, r3, #2
 800073a:	4413      	add	r3, r2
 800073c:	005b      	lsls	r3, r3, #1
 800073e:	1aca      	subs	r2, r1, r3
 8000740:	b2d2      	uxtb	r2, r2
 8000742:	4b66      	ldr	r3, [pc, #408]	@ (80008dc <SevenSegLEDsHandler+0x2e0>)
 8000744:	705a      	strb	r2, [r3, #1]
            output[2] = (buffer[2] / 100) % 10;
 8000746:	687b      	ldr	r3, [r7, #4]
 8000748:	3308      	adds	r3, #8
 800074a:	681b      	ldr	r3, [r3, #0]
 800074c:	4a64      	ldr	r2, [pc, #400]	@ (80008e0 <SevenSegLEDsHandler+0x2e4>)
 800074e:	fba2 2303 	umull	r2, r3, r2, r3
 8000752:	0959      	lsrs	r1, r3, #5
 8000754:	4b60      	ldr	r3, [pc, #384]	@ (80008d8 <SevenSegLEDsHandler+0x2dc>)
 8000756:	fba3 2301 	umull	r2, r3, r3, r1
 800075a:	08da      	lsrs	r2, r3, #3
 800075c:	4613      	mov	r3, r2
 800075e:	009b      	lsls	r3, r3, #2
 8000760:	4413      	add	r3, r2
 8000762:	005b      	lsls	r3, r3, #1
 8000764:	1aca      	subs	r2, r1, r3
 8000766:	b2d2      	uxtb	r2, r2
 8000768:	4b5c      	ldr	r3, [pc, #368]	@ (80008dc <SevenSegLEDsHandler+0x2e0>)
 800076a:	709a      	strb	r2, [r3, #2]
            break;
 800076c:	e0ad      	b.n	80008ca <SevenSegLEDsHandler+0x2ce>
        case 3:
            output[0] = (buffer[0] / 1000) % 10;
 800076e:	687b      	ldr	r3, [r7, #4]
 8000770:	681b      	ldr	r3, [r3, #0]
 8000772:	4a5c      	ldr	r2, [pc, #368]	@ (80008e4 <SevenSegLEDsHandler+0x2e8>)
 8000774:	fba2 2303 	umull	r2, r3, r2, r3
 8000778:	0999      	lsrs	r1, r3, #6
 800077a:	4b57      	ldr	r3, [pc, #348]	@ (80008d8 <SevenSegLEDsHandler+0x2dc>)
 800077c:	fba3 2301 	umull	r2, r3, r3, r1
 8000780:	08da      	lsrs	r2, r3, #3
 8000782:	4613      	mov	r3, r2
 8000784:	009b      	lsls	r3, r3, #2
 8000786:	4413      	add	r3, r2
 8000788:	005b      	lsls	r3, r3, #1
 800078a:	1aca      	subs	r2, r1, r3
 800078c:	b2d2      	uxtb	r2, r2
 800078e:	4b53      	ldr	r3, [pc, #332]	@ (80008dc <SevenSegLEDsHandler+0x2e0>)
 8000790:	701a      	strb	r2, [r3, #0]
            output[1] = (buffer[1] / 1000) % 10;
 8000792:	687b      	ldr	r3, [r7, #4]
 8000794:	3304      	adds	r3, #4
 8000796:	681b      	ldr	r3, [r3, #0]
 8000798:	4a52      	ldr	r2, [pc, #328]	@ (80008e4 <SevenSegLEDsHandler+0x2e8>)
 800079a:	fba2 2303 	umull	r2, r3, r2, r3
 800079e:	0999      	lsrs	r1, r3, #6
 80007a0:	4b4d      	ldr	r3, [pc, #308]	@ (80008d8 <SevenSegLEDsHandler+0x2dc>)
 80007a2:	fba3 2301 	umull	r2, r3, r3, r1
 80007a6:	08da      	lsrs	r2, r3, #3
 80007a8:	4613      	mov	r3, r2
 80007aa:	009b      	lsls	r3, r3, #2
 80007ac:	4413      	add	r3, r2
 80007ae:	005b      	lsls	r3, r3, #1
 80007b0:	1aca      	subs	r2, r1, r3
 80007b2:	b2d2      	uxtb	r2, r2
 80007b4:	4b49      	ldr	r3, [pc, #292]	@ (80008dc <SevenSegLEDsHandler+0x2e0>)
 80007b6:	705a      	strb	r2, [r3, #1]
            output[2] = (buffer[2] / 1000) % 10;
 80007b8:	687b      	ldr	r3, [r7, #4]
 80007ba:	3308      	adds	r3, #8
 80007bc:	681b      	ldr	r3, [r3, #0]
 80007be:	4a49      	ldr	r2, [pc, #292]	@ (80008e4 <SevenSegLEDsHandler+0x2e8>)
 80007c0:	fba2 2303 	umull	r2, r3, r2, r3
 80007c4:	0999      	lsrs	r1, r3, #6
 80007c6:	4b44      	ldr	r3, [pc, #272]	@ (80008d8 <SevenSegLEDsHandler+0x2dc>)
 80007c8:	fba3 2301 	umull	r2, r3, r3, r1
 80007cc:	08da      	lsrs	r2, r3, #3
 80007ce:	4613      	mov	r3, r2
 80007d0:	009b      	lsls	r3, r3, #2
 80007d2:	4413      	add	r3, r2
 80007d4:	005b      	lsls	r3, r3, #1
 80007d6:	1aca      	subs	r2, r1, r3
 80007d8:	b2d2      	uxtb	r2, r2
 80007da:	4b40      	ldr	r3, [pc, #256]	@ (80008dc <SevenSegLEDsHandler+0x2e0>)
 80007dc:	709a      	strb	r2, [r3, #2]
            break;
 80007de:	e074      	b.n	80008ca <SevenSegLEDsHandler+0x2ce>
        case 4:
            output[0] = (buffer[0] / 10000) % 10;
 80007e0:	687b      	ldr	r3, [r7, #4]
 80007e2:	681b      	ldr	r3, [r3, #0]
 80007e4:	4a40      	ldr	r2, [pc, #256]	@ (80008e8 <SevenSegLEDsHandler+0x2ec>)
 80007e6:	fba2 2303 	umull	r2, r3, r2, r3
 80007ea:	0b59      	lsrs	r1, r3, #13
 80007ec:	4b3a      	ldr	r3, [pc, #232]	@ (80008d8 <SevenSegLEDsHandler+0x2dc>)
 80007ee:	fba3 2301 	umull	r2, r3, r3, r1
 80007f2:	08da      	lsrs	r2, r3, #3
 80007f4:	4613      	mov	r3, r2
 80007f6:	009b      	lsls	r3, r3, #2
 80007f8:	4413      	add	r3, r2
 80007fa:	005b      	lsls	r3, r3, #1
 80007fc:	1aca      	subs	r2, r1, r3
 80007fe:	b2d2      	uxtb	r2, r2
 8000800:	4b36      	ldr	r3, [pc, #216]	@ (80008dc <SevenSegLEDsHandler+0x2e0>)
 8000802:	701a      	strb	r2, [r3, #0]
            output[1] = (buffer[1] / 10000) % 10;
 8000804:	687b      	ldr	r3, [r7, #4]
 8000806:	3304      	adds	r3, #4
 8000808:	681b      	ldr	r3, [r3, #0]
 800080a:	4a37      	ldr	r2, [pc, #220]	@ (80008e8 <SevenSegLEDsHandler+0x2ec>)
 800080c:	fba2 2303 	umull	r2, r3, r2, r3
 8000810:	0b59      	lsrs	r1, r3, #13
 8000812:	4b31      	ldr	r3, [pc, #196]	@ (80008d8 <SevenSegLEDsHandler+0x2dc>)
 8000814:	fba3 2301 	umull	r2, r3, r3, r1
 8000818:	08da      	lsrs	r2, r3, #3
 800081a:	4613      	mov	r3, r2
 800081c:	009b      	lsls	r3, r3, #2
 800081e:	4413      	add	r3, r2
 8000820:	005b      	lsls	r3, r3, #1
 8000822:	1aca      	subs	r2, r1, r3
 8000824:	b2d2      	uxtb	r2, r2
 8000826:	4b2d      	ldr	r3, [pc, #180]	@ (80008dc <SevenSegLEDsHandler+0x2e0>)
 8000828:	705a      	strb	r2, [r3, #1]
            output[2] = (buffer[2] / 10000) % 10;
 800082a:	687b      	ldr	r3, [r7, #4]
 800082c:	3308      	adds	r3, #8
 800082e:	681b      	ldr	r3, [r3, #0]
 8000830:	4a2d      	ldr	r2, [pc, #180]	@ (80008e8 <SevenSegLEDsHandler+0x2ec>)
 8000832:	fba2 2303 	umull	r2, r3, r2, r3
 8000836:	0b59      	lsrs	r1, r3, #13
 8000838:	4b27      	ldr	r3, [pc, #156]	@ (80008d8 <SevenSegLEDsHandler+0x2dc>)
 800083a:	fba3 2301 	umull	r2, r3, r3, r1
 800083e:	08da      	lsrs	r2, r3, #3
 8000840:	4613      	mov	r3, r2
 8000842:	009b      	lsls	r3, r3, #2
 8000844:	4413      	add	r3, r2
 8000846:	005b      	lsls	r3, r3, #1
 8000848:	1aca      	subs	r2, r1, r3
 800084a:	b2d2      	uxtb	r2, r2
 800084c:	4b23      	ldr	r3, [pc, #140]	@ (80008dc <SevenSegLEDsHandler+0x2e0>)
 800084e:	709a      	strb	r2, [r3, #2]
            break;
 8000850:	e03b      	b.n	80008ca <SevenSegLEDsHandler+0x2ce>
        case 5:
            output[0] = (buffer[0] / 100000) % 10;
 8000852:	687b      	ldr	r3, [r7, #4]
 8000854:	681b      	ldr	r3, [r3, #0]
 8000856:	095b      	lsrs	r3, r3, #5
 8000858:	4a24      	ldr	r2, [pc, #144]	@ (80008ec <SevenSegLEDsHandler+0x2f0>)
 800085a:	fba2 2303 	umull	r2, r3, r2, r3
 800085e:	09d9      	lsrs	r1, r3, #7
 8000860:	4b1d      	ldr	r3, [pc, #116]	@ (80008d8 <SevenSegLEDsHandler+0x2dc>)
 8000862:	fba3 2301 	umull	r2, r3, r3, r1
 8000866:	08da      	lsrs	r2, r3, #3
 8000868:	4613      	mov	r3, r2
 800086a:	009b      	lsls	r3, r3, #2
 800086c:	4413      	add	r3, r2
 800086e:	005b      	lsls	r3, r3, #1
 8000870:	1aca      	subs	r2, r1, r3
 8000872:	b2d2      	uxtb	r2, r2
 8000874:	4b19      	ldr	r3, [pc, #100]	@ (80008dc <SevenSegLEDsHandler+0x2e0>)
 8000876:	701a      	strb	r2, [r3, #0]
            output[1] = (buffer[1] / 100000) % 10;
 8000878:	687b      	ldr	r3, [r7, #4]
 800087a:	3304      	adds	r3, #4
 800087c:	681b      	ldr	r3, [r3, #0]
 800087e:	095b      	lsrs	r3, r3, #5
 8000880:	4a1a      	ldr	r2, [pc, #104]	@ (80008ec <SevenSegLEDsHandler+0x2f0>)
 8000882:	fba2 2303 	umull	r2, r3, r2, r3
 8000886:	09d9      	lsrs	r1, r3, #7
 8000888:	4b13      	ldr	r3, [pc, #76]	@ (80008d8 <SevenSegLEDsHandler+0x2dc>)
 800088a:	fba3 2301 	umull	r2, r3, r3, r1
 800088e:	08da      	lsrs	r2, r3, #3
 8000890:	4613      	mov	r3, r2
 8000892:	009b      	lsls	r3, r3, #2
 8000894:	4413      	add	r3, r2
 8000896:	005b      	lsls	r3, r3, #1
 8000898:	1aca      	subs	r2, r1, r3
 800089a:	b2d2      	uxtb	r2, r2
 800089c:	4b0f      	ldr	r3, [pc, #60]	@ (80008dc <SevenSegLEDsHandler+0x2e0>)
 800089e:	705a      	strb	r2, [r3, #1]
            output[2] = (buffer[2] / 100000) % 10;
 80008a0:	687b      	ldr	r3, [r7, #4]
 80008a2:	3308      	adds	r3, #8
 80008a4:	681b      	ldr	r3, [r3, #0]
 80008a6:	095b      	lsrs	r3, r3, #5
 80008a8:	4a10      	ldr	r2, [pc, #64]	@ (80008ec <SevenSegLEDsHandler+0x2f0>)
 80008aa:	fba2 2303 	umull	r2, r3, r2, r3
 80008ae:	09d9      	lsrs	r1, r3, #7
 80008b0:	4b09      	ldr	r3, [pc, #36]	@ (80008d8 <SevenSegLEDsHandler+0x2dc>)
 80008b2:	fba3 2301 	umull	r2, r3, r3, r1
 80008b6:	08da      	lsrs	r2, r3, #3
 80008b8:	4613      	mov	r3, r2
 80008ba:	009b      	lsls	r3, r3, #2
 80008bc:	4413      	add	r3, r2
 80008be:	005b      	lsls	r3, r3, #1
 80008c0:	1aca      	subs	r2, r1, r3
 80008c2:	b2d2      	uxtb	r2, r2
 80008c4:	4b05      	ldr	r3, [pc, #20]	@ (80008dc <SevenSegLEDsHandler+0x2e0>)
 80008c6:	709a      	strb	r2, [r3, #2]
            break;
 80008c8:	bf00      	nop
    }
    return output;
 80008ca:	4b04      	ldr	r3, [pc, #16]	@ (80008dc <SevenSegLEDsHandler+0x2e0>)
}
 80008cc:	4618      	mov	r0, r3
 80008ce:	370c      	adds	r7, #12
 80008d0:	46bd      	mov	sp, r7
 80008d2:	bc80      	pop	{r7}
 80008d4:	4770      	bx	lr
 80008d6:	bf00      	nop
 80008d8:	cccccccd 	.word	0xcccccccd
 80008dc:	20000064 	.word	0x20000064
 80008e0:	51eb851f 	.word	0x51eb851f
 80008e4:	10624dd3 	.word	0x10624dd3
 80008e8:	d1b71759 	.word	0xd1b71759
 80008ec:	0a7c5ac5 	.word	0x0a7c5ac5

080008f0 <SevenSegLEDsScan>:


void SevenSegLEDsScan(){
 80008f0:	b580      	push	{r7, lr}
 80008f2:	b084      	sub	sp, #16
 80008f4:	af00      	add	r7, sp, #0
	uint8_t* curr_digit=SevenSegLEDsHandler(SevenSegBuffer,SevenSegScanState);
 80008f6:	4b32      	ldr	r3, [pc, #200]	@ (80009c0 <SevenSegLEDsScan+0xd0>)
 80008f8:	781b      	ldrb	r3, [r3, #0]
 80008fa:	4619      	mov	r1, r3
 80008fc:	4831      	ldr	r0, [pc, #196]	@ (80009c4 <SevenSegLEDsScan+0xd4>)
 80008fe:	f7ff fe7d 	bl	80005fc <SevenSegLEDsHandler>
 8000902:	60b8      	str	r0, [r7, #8]
	uint8_t curr_scan;
	switch (SevenSegScanState) {
 8000904:	4b2e      	ldr	r3, [pc, #184]	@ (80009c0 <SevenSegLEDsScan+0xd0>)
 8000906:	781b      	ldrb	r3, [r3, #0]
 8000908:	2b05      	cmp	r3, #5
 800090a:	d833      	bhi.n	8000974 <SevenSegLEDsScan+0x84>
 800090c:	a201      	add	r2, pc, #4	@ (adr r2, 8000914 <SevenSegLEDsScan+0x24>)
 800090e:	f852 f023 	ldr.w	pc, [r2, r3, lsl #2]
 8000912:	bf00      	nop
 8000914:	0800092d 	.word	0x0800092d
 8000918:	08000939 	.word	0x08000939
 800091c:	08000945 	.word	0x08000945
 8000920:	08000951 	.word	0x08000951
 8000924:	0800095d 	.word	0x0800095d
 8000928:	08000969 	.word	0x08000969
		case 0:
			curr_scan=0b00100000;
 800092c:	2320      	movs	r3, #32
 800092e:	73fb      	strb	r3, [r7, #15]
			SevenSegScanState=1;
 8000930:	4b23      	ldr	r3, [pc, #140]	@ (80009c0 <SevenSegLEDsScan+0xd0>)
 8000932:	2201      	movs	r2, #1
 8000934:	701a      	strb	r2, [r3, #0]
			break;
 8000936:	e023      	b.n	8000980 <SevenSegLEDsScan+0x90>
		case 1:
			curr_scan=0b00010000;
 8000938:	2310      	movs	r3, #16
 800093a:	73fb      	strb	r3, [r7, #15]
			SevenSegScanState=2;
 800093c:	4b20      	ldr	r3, [pc, #128]	@ (80009c0 <SevenSegLEDsScan+0xd0>)
 800093e:	2202      	movs	r2, #2
 8000940:	701a      	strb	r2, [r3, #0]
			break;
 8000942:	e01d      	b.n	8000980 <SevenSegLEDsScan+0x90>
		case 2:
			curr_scan=0b00001000;
 8000944:	2308      	movs	r3, #8
 8000946:	73fb      	strb	r3, [r7, #15]
			SevenSegScanState=3;
 8000948:	4b1d      	ldr	r3, [pc, #116]	@ (80009c0 <SevenSegLEDsScan+0xd0>)
 800094a:	2203      	movs	r2, #3
 800094c:	701a      	strb	r2, [r3, #0]
			break;
 800094e:	e017      	b.n	8000980 <SevenSegLEDsScan+0x90>
		case 3:
			curr_scan=0b00000100;
 8000950:	2304      	movs	r3, #4
 8000952:	73fb      	strb	r3, [r7, #15]
			SevenSegScanState=4;
 8000954:	4b1a      	ldr	r3, [pc, #104]	@ (80009c0 <SevenSegLEDsScan+0xd0>)
 8000956:	2204      	movs	r2, #4
 8000958:	701a      	strb	r2, [r3, #0]
			break;
 800095a:	e011      	b.n	8000980 <SevenSegLEDsScan+0x90>
		case 4:
			curr_scan=0b00000010;
 800095c:	2302      	movs	r3, #2
 800095e:	73fb      	strb	r3, [r7, #15]
			SevenSegScanState=5;
 8000960:	4b17      	ldr	r3, [pc, #92]	@ (80009c0 <SevenSegLEDsScan+0xd0>)
 8000962:	2205      	movs	r2, #5
 8000964:	701a      	strb	r2, [r3, #0]
			break;
 8000966:	e00b      	b.n	8000980 <SevenSegLEDsScan+0x90>
		case 5:
			curr_scan=0b00000001;
 8000968:	2301      	movs	r3, #1
 800096a:	73fb      	strb	r3, [r7, #15]
			SevenSegScanState=0;
 800096c:	4b14      	ldr	r3, [pc, #80]	@ (80009c0 <SevenSegLEDsScan+0xd0>)
 800096e:	2200      	movs	r2, #0
 8000970:	701a      	strb	r2, [r3, #0]
			break;
 8000972:	e005      	b.n	8000980 <SevenSegLEDsScan+0x90>
		default:
			curr_scan=0b00000001;
 8000974:	2301      	movs	r3, #1
 8000976:	73fb      	strb	r3, [r7, #15]
			SevenSegScanState=0;
 8000978:	4b11      	ldr	r3, [pc, #68]	@ (80009c0 <SevenSegLEDsScan+0xd0>)
 800097a:	2200      	movs	r2, #0
 800097c:	701a      	strb	r2, [r3, #0]
			break;
 800097e:	bf00      	nop
	}
	uint8_t led_buffer[]={curr_scan,digitMapWithOutDP[curr_digit[2]],digitMapWithOutDP[curr_digit[1]],digitMapWithOutDP[curr_digit[0]]};
 8000980:	7bfb      	ldrb	r3, [r7, #15]
 8000982:	713b      	strb	r3, [r7, #4]
 8000984:	68bb      	ldr	r3, [r7, #8]
 8000986:	3302      	adds	r3, #2
 8000988:	781b      	ldrb	r3, [r3, #0]
 800098a:	461a      	mov	r2, r3
 800098c:	4b0e      	ldr	r3, [pc, #56]	@ (80009c8 <SevenSegLEDsScan+0xd8>)
 800098e:	5c9b      	ldrb	r3, [r3, r2]
 8000990:	717b      	strb	r3, [r7, #5]
 8000992:	68bb      	ldr	r3, [r7, #8]
 8000994:	3301      	adds	r3, #1
 8000996:	781b      	ldrb	r3, [r3, #0]
 8000998:	461a      	mov	r2, r3
 800099a:	4b0b      	ldr	r3, [pc, #44]	@ (80009c8 <SevenSegLEDsScan+0xd8>)
 800099c:	5c9b      	ldrb	r3, [r3, r2]
 800099e:	71bb      	strb	r3, [r7, #6]
 80009a0:	68bb      	ldr	r3, [r7, #8]
 80009a2:	781b      	ldrb	r3, [r3, #0]
 80009a4:	461a      	mov	r2, r3
 80009a6:	4b08      	ldr	r3, [pc, #32]	@ (80009c8 <SevenSegLEDsScan+0xd8>)
 80009a8:	5c9b      	ldrb	r3, [r3, r2]
 80009aa:	71fb      	strb	r3, [r7, #7]
	ShiftOut_SPI(led_buffer, 4);
 80009ac:	1d3b      	adds	r3, r7, #4
 80009ae:	2104      	movs	r1, #4
 80009b0:	4618      	mov	r0, r3
 80009b2:	f000 f80b 	bl	80009cc <ShiftOut_SPI>
}
 80009b6:	bf00      	nop
 80009b8:	3710      	adds	r7, #16
 80009ba:	46bd      	mov	sp, r7
 80009bc:	bd80      	pop	{r7, pc}
 80009be:	bf00      	nop
 80009c0:	20000061 	.word	0x20000061
 80009c4:	2000000c 	.word	0x2000000c
 80009c8:	20000000 	.word	0x20000000

080009cc <ShiftOut_SPI>:
 *      Author: clong
 */
#include "SPI_shift.h"

void ShiftOut_SPI(uint8_t *data, size_t size)
{
 80009cc:	b580      	push	{r7, lr}
 80009ce:	b082      	sub	sp, #8
 80009d0:	af00      	add	r7, sp, #0
 80009d2:	6078      	str	r0, [r7, #4]
 80009d4:	6039      	str	r1, [r7, #0]

    HAL_GPIO_WritePin(GPIOB, GPIO_PIN_14, GPIO_PIN_RESET); // Pull STCP (Latch) low
 80009d6:	2200      	movs	r2, #0
 80009d8:	f44f 4180 	mov.w	r1, #16384	@ 0x4000
 80009dc:	480a      	ldr	r0, [pc, #40]	@ (8000a08 <ShiftOut_SPI+0x3c>)
 80009de:	f000 fe3c 	bl	800165a <HAL_GPIO_WritePin>
    HAL_SPI_Transmit(&hspi2, data, size, 300); // Transmit data
 80009e2:	683b      	ldr	r3, [r7, #0]
 80009e4:	b29a      	uxth	r2, r3
 80009e6:	f44f 7396 	mov.w	r3, #300	@ 0x12c
 80009ea:	6879      	ldr	r1, [r7, #4]
 80009ec:	4807      	ldr	r0, [pc, #28]	@ (8000a0c <ShiftOut_SPI+0x40>)
 80009ee:	f001 faaf 	bl	8001f50 <HAL_SPI_Transmit>
    HAL_GPIO_WritePin(GPIOB, GPIO_PIN_14, GPIO_PIN_SET); // Pull STCP (Latch) high
 80009f2:	2201      	movs	r2, #1
 80009f4:	f44f 4180 	mov.w	r1, #16384	@ 0x4000
 80009f8:	4803      	ldr	r0, [pc, #12]	@ (8000a08 <ShiftOut_SPI+0x3c>)
 80009fa:	f000 fe2e 	bl	800165a <HAL_GPIO_WritePin>

}
 80009fe:	bf00      	nop
 8000a00:	3708      	adds	r7, #8
 8000a02:	46bd      	mov	sp, r7
 8000a04:	bd80      	pop	{r7, pc}
 8000a06:	bf00      	nop
 8000a08:	40010c00 	.word	0x40010c00
 8000a0c:	200000c0 	.word	0x200000c0

08000a10 <main>:
/**
  * @brief  The application entry point.
  * @retval int
  */
int main(void)
{
 8000a10:	b580      	push	{r7, lr}
 8000a12:	af00      	add	r7, sp, #0
  /* USER CODE END 1 */

  /* MCU Configuration--------------------------------------------------------*/

  /* Reset of all peripherals, Initializes the Flash interface and the Systick. */
  HAL_Init();
 8000a14:	f000 fb16 	bl	8001044 <HAL_Init>
  /* USER CODE BEGIN Init */

  /* USER CODE END Init */

  /* Configure the system clock */
  SystemClock_Config();
 8000a18:	f000 f832 	bl	8000a80 <SystemClock_Config>
  /* USER CODE BEGIN SysInit */

  /* USER CODE END SysInit */

  /* Initialize all configured peripherals */
  MX_GPIO_Init();
 8000a1c:	f000 f924 	bl	8000c68 <MX_GPIO_Init>
  MX_SPI2_Init();
 8000a20:	f000 f8a0 	bl	8000b64 <MX_SPI2_Init>
  MX_TIM2_Init();
 8000a24:	f000 f8d4 	bl	8000bd0 <MX_TIM2_Init>
  MX_SPI1_Init();
 8000a28:	f000 f866 	bl	8000af8 <MX_SPI1_Init>
  /* USER CODE BEGIN 2 */
  HAL_TIM_Base_Start_IT(&htim2);
 8000a2c:	4812      	ldr	r0, [pc, #72]	@ (8000a78 <main+0x68>)
 8000a2e:	f001 fcc9 	bl	80023c4 <HAL_TIM_Base_Start_IT>
  setTimer(0,100);
 8000a32:	2164      	movs	r1, #100	@ 0x64
 8000a34:	2000      	movs	r0, #0
 8000a36:	f000 fa97 	bl	8000f68 <setTimer>
  setTimer(1,100);
 8000a3a:	2164      	movs	r1, #100	@ 0x64
 8000a3c:	2001      	movs	r0, #1
 8000a3e:	f000 fa93 	bl	8000f68 <setTimer>
  setTimer(2,100);
 8000a42:	2164      	movs	r1, #100	@ 0x64
 8000a44:	2002      	movs	r0, #2
 8000a46:	f000 fa8f 	bl	8000f68 <setTimer>
  /* Infinite loop */
  /* USER CODE BEGIN WHILE */

  while (1) {
	  // TIMER 0 /////////////////////////////////////
	  if(timer_flag[0]==1){
 8000a4a:	4b0c      	ldr	r3, [pc, #48]	@ (8000a7c <main+0x6c>)
 8000a4c:	681b      	ldr	r3, [r3, #0]
 8000a4e:	2b01      	cmp	r3, #1
 8000a50:	d105      	bne.n	8000a5e <main+0x4e>

		  SevenSegLEDsScan();
 8000a52:	f7ff ff4d 	bl	80008f0 <SevenSegLEDsScan>
		  setTimer(0,5);
 8000a56:	2105      	movs	r1, #5
 8000a58:	2000      	movs	r0, #0
 8000a5a:	f000 fa85 	bl	8000f68 <setTimer>
	  }

	  // TIMER 1 /////////////////////////////////////
	  if(timer_flag[1]==1){
 8000a5e:	4b07      	ldr	r3, [pc, #28]	@ (8000a7c <main+0x6c>)
 8000a60:	685b      	ldr	r3, [r3, #4]
 8000a62:	2b01      	cmp	r3, #1
 8000a64:	d1f1      	bne.n	8000a4a <main+0x3a>
		  KeyLogic();
 8000a66:	f7ff fc03 	bl	8000270 <KeyLogic>
		  KeyLogic_Action();
 8000a6a:	f7ff fd39 	bl	80004e0 <KeyLogic_Action>
		  setTimer(1,10);
 8000a6e:	210a      	movs	r1, #10
 8000a70:	2001      	movs	r0, #1
 8000a72:	f000 fa79 	bl	8000f68 <setTimer>
	  if(timer_flag[0]==1){
 8000a76:	e7e8      	b.n	8000a4a <main+0x3a>
 8000a78:	20000118 	.word	0x20000118
 8000a7c:	20000188 	.word	0x20000188

08000a80 <SystemClock_Config>:
/**
  * @brief System Clock Configuration
  * @retval None
  */
void SystemClock_Config(void)
{
 8000a80:	b580      	push	{r7, lr}
 8000a82:	b090      	sub	sp, #64	@ 0x40
 8000a84:	af00      	add	r7, sp, #0
  RCC_OscInitTypeDef RCC_OscInitStruct = {0};
 8000a86:	f107 0318 	add.w	r3, r7, #24
 8000a8a:	2228      	movs	r2, #40	@ 0x28
 8000a8c:	2100      	movs	r1, #0
 8000a8e:	4618      	mov	r0, r3
 8000a90:	f002 f846 	bl	8002b20 <memset>
  RCC_ClkInitTypeDef RCC_ClkInitStruct = {0};
 8000a94:	1d3b      	adds	r3, r7, #4
 8000a96:	2200      	movs	r2, #0
 8000a98:	601a      	str	r2, [r3, #0]
 8000a9a:	605a      	str	r2, [r3, #4]
 8000a9c:	609a      	str	r2, [r3, #8]
 8000a9e:	60da      	str	r2, [r3, #12]
 8000aa0:	611a      	str	r2, [r3, #16]

  /** Initializes the RCC Oscillators according to the specified parameters
  * in the RCC_OscInitTypeDef structure.
  */
  RCC_OscInitStruct.OscillatorType = RCC_OSCILLATORTYPE_HSI;
 8000aa2:	2302      	movs	r3, #2
 8000aa4:	61bb      	str	r3, [r7, #24]
  RCC_OscInitStruct.HSIState = RCC_HSI_ON;
 8000aa6:	2301      	movs	r3, #1
 8000aa8:	62bb      	str	r3, [r7, #40]	@ 0x28
  RCC_OscInitStruct.HSICalibrationValue = RCC_HSICALIBRATION_DEFAULT;
 8000aaa:	2310      	movs	r3, #16
 8000aac:	62fb      	str	r3, [r7, #44]	@ 0x2c
  RCC_OscInitStruct.PLL.PLLState = RCC_PLL_NONE;
 8000aae:	2300      	movs	r3, #0
 8000ab0:	637b      	str	r3, [r7, #52]	@ 0x34
  if (HAL_RCC_OscConfig(&RCC_OscInitStruct) != HAL_OK)
 8000ab2:	f107 0318 	add.w	r3, r7, #24
 8000ab6:	4618      	mov	r0, r3
 8000ab8:	f000 fde8 	bl	800168c <HAL_RCC_OscConfig>
 8000abc:	4603      	mov	r3, r0
 8000abe:	2b00      	cmp	r3, #0
 8000ac0:	d001      	beq.n	8000ac6 <SystemClock_Config+0x46>
  {
    Error_Handler();
 8000ac2:	f000 f94b 	bl	8000d5c <Error_Handler>
  }

  /** Initializes the CPU, AHB and APB buses clocks
  */
  RCC_ClkInitStruct.ClockType = RCC_CLOCKTYPE_HCLK|RCC_CLOCKTYPE_SYSCLK
 8000ac6:	230f      	movs	r3, #15
 8000ac8:	607b      	str	r3, [r7, #4]
                              |RCC_CLOCKTYPE_PCLK1|RCC_CLOCKTYPE_PCLK2;
  RCC_ClkInitStruct.SYSCLKSource = RCC_SYSCLKSOURCE_HSI;
 8000aca:	2300      	movs	r3, #0
 8000acc:	60bb      	str	r3, [r7, #8]
  RCC_ClkInitStruct.AHBCLKDivider = RCC_SYSCLK_DIV1;
 8000ace:	2300      	movs	r3, #0
 8000ad0:	60fb      	str	r3, [r7, #12]
  RCC_ClkInitStruct.APB1CLKDivider = RCC_HCLK_DIV1;
 8000ad2:	2300      	movs	r3, #0
 8000ad4:	613b      	str	r3, [r7, #16]
  RCC_ClkInitStruct.APB2CLKDivider = RCC_HCLK_DIV1;
 8000ad6:	2300      	movs	r3, #0
 8000ad8:	617b      	str	r3, [r7, #20]

  if (HAL_RCC_ClockConfig(&RCC_ClkInitStruct, FLASH_LATENCY_0) != HAL_OK)
 8000ada:	1d3b      	adds	r3, r7, #4
 8000adc:	2100      	movs	r1, #0
 8000ade:	4618      	mov	r0, r3
 8000ae0:	f001 f856 	bl	8001b90 <HAL_RCC_ClockConfig>
 8000ae4:	4603      	mov	r3, r0
 8000ae6:	2b00      	cmp	r3, #0
 8000ae8:	d001      	beq.n	8000aee <SystemClock_Config+0x6e>
  {
    Error_Handler();
 8000aea:	f000 f937 	bl	8000d5c <Error_Handler>
  }
}
 8000aee:	bf00      	nop
 8000af0:	3740      	adds	r7, #64	@ 0x40
 8000af2:	46bd      	mov	sp, r7
 8000af4:	bd80      	pop	{r7, pc}
	...

08000af8 <MX_SPI1_Init>:
  * @brief SPI1 Initialization Function
  * @param None
  * @retval None
  */
static void MX_SPI1_Init(void)
{
 8000af8:	b580      	push	{r7, lr}
 8000afa:	af00      	add	r7, sp, #0

  /* USER CODE BEGIN SPI1_Init 1 */

  /* USER CODE END SPI1_Init 1 */
  /* SPI1 parameter configuration*/
  hspi1.Instance = SPI1;
 8000afc:	4b17      	ldr	r3, [pc, #92]	@ (8000b5c <MX_SPI1_Init+0x64>)
 8000afe:	4a18      	ldr	r2, [pc, #96]	@ (8000b60 <MX_SPI1_Init+0x68>)
 8000b00:	601a      	str	r2, [r3, #0]
  hspi1.Init.Mode = SPI_MODE_MASTER;
 8000b02:	4b16      	ldr	r3, [pc, #88]	@ (8000b5c <MX_SPI1_Init+0x64>)
 8000b04:	f44f 7282 	mov.w	r2, #260	@ 0x104
 8000b08:	605a      	str	r2, [r3, #4]
  hspi1.Init.Direction = SPI_DIRECTION_2LINES;
 8000b0a:	4b14      	ldr	r3, [pc, #80]	@ (8000b5c <MX_SPI1_Init+0x64>)
 8000b0c:	2200      	movs	r2, #0
 8000b0e:	609a      	str	r2, [r3, #8]
  hspi1.Init.DataSize = SPI_DATASIZE_8BIT;
 8000b10:	4b12      	ldr	r3, [pc, #72]	@ (8000b5c <MX_SPI1_Init+0x64>)
 8000b12:	2200      	movs	r2, #0
 8000b14:	60da      	str	r2, [r3, #12]
  hspi1.Init.CLKPolarity = SPI_POLARITY_LOW;
 8000b16:	4b11      	ldr	r3, [pc, #68]	@ (8000b5c <MX_SPI1_Init+0x64>)
 8000b18:	2200      	movs	r2, #0
 8000b1a:	611a      	str	r2, [r3, #16]
  hspi1.Init.CLKPhase = SPI_PHASE_1EDGE;
 8000b1c:	4b0f      	ldr	r3, [pc, #60]	@ (8000b5c <MX_SPI1_Init+0x64>)
 8000b1e:	2200      	movs	r2, #0
 8000b20:	615a      	str	r2, [r3, #20]
  hspi1.Init.NSS = SPI_NSS_SOFT;
 8000b22:	4b0e      	ldr	r3, [pc, #56]	@ (8000b5c <MX_SPI1_Init+0x64>)
 8000b24:	f44f 7200 	mov.w	r2, #512	@ 0x200
 8000b28:	619a      	str	r2, [r3, #24]
  hspi1.Init.BaudRatePrescaler = SPI_BAUDRATEPRESCALER_2;
 8000b2a:	4b0c      	ldr	r3, [pc, #48]	@ (8000b5c <MX_SPI1_Init+0x64>)
 8000b2c:	2200      	movs	r2, #0
 8000b2e:	61da      	str	r2, [r3, #28]
  hspi1.Init.FirstBit = SPI_FIRSTBIT_MSB;
 8000b30:	4b0a      	ldr	r3, [pc, #40]	@ (8000b5c <MX_SPI1_Init+0x64>)
 8000b32:	2200      	movs	r2, #0
 8000b34:	621a      	str	r2, [r3, #32]
  hspi1.Init.TIMode = SPI_TIMODE_DISABLE;
 8000b36:	4b09      	ldr	r3, [pc, #36]	@ (8000b5c <MX_SPI1_Init+0x64>)
 8000b38:	2200      	movs	r2, #0
 8000b3a:	625a      	str	r2, [r3, #36]	@ 0x24
  hspi1.Init.CRCCalculation = SPI_CRCCALCULATION_DISABLE;
 8000b3c:	4b07      	ldr	r3, [pc, #28]	@ (8000b5c <MX_SPI1_Init+0x64>)
 8000b3e:	2200      	movs	r2, #0
 8000b40:	629a      	str	r2, [r3, #40]	@ 0x28
  hspi1.Init.CRCPolynomial = 10;
 8000b42:	4b06      	ldr	r3, [pc, #24]	@ (8000b5c <MX_SPI1_Init+0x64>)
 8000b44:	220a      	movs	r2, #10
 8000b46:	62da      	str	r2, [r3, #44]	@ 0x2c
  if (HAL_SPI_Init(&hspi1) != HAL_OK)
 8000b48:	4804      	ldr	r0, [pc, #16]	@ (8000b5c <MX_SPI1_Init+0x64>)
 8000b4a:	f001 f97d 	bl	8001e48 <HAL_SPI_Init>
 8000b4e:	4603      	mov	r3, r0
 8000b50:	2b00      	cmp	r3, #0
 8000b52:	d001      	beq.n	8000b58 <MX_SPI1_Init+0x60>
  {
    Error_Handler();
 8000b54:	f000 f902 	bl	8000d5c <Error_Handler>
  }
  /* USER CODE BEGIN SPI1_Init 2 */

  /* USER CODE END SPI1_Init 2 */

}
 8000b58:	bf00      	nop
 8000b5a:	bd80      	pop	{r7, pc}
 8000b5c:	20000068 	.word	0x20000068
 8000b60:	40013000 	.word	0x40013000

08000b64 <MX_SPI2_Init>:
  * @brief SPI2 Initialization Function
  * @param None
  * @retval None
  */
static void MX_SPI2_Init(void)
{
 8000b64:	b580      	push	{r7, lr}
 8000b66:	af00      	add	r7, sp, #0

  /* USER CODE BEGIN SPI2_Init 1 */

  /* USER CODE END SPI2_Init 1 */
  /* SPI2 parameter configuration*/
  hspi2.Instance = SPI2;
 8000b68:	4b17      	ldr	r3, [pc, #92]	@ (8000bc8 <MX_SPI2_Init+0x64>)
 8000b6a:	4a18      	ldr	r2, [pc, #96]	@ (8000bcc <MX_SPI2_Init+0x68>)
 8000b6c:	601a      	str	r2, [r3, #0]
  hspi2.Init.Mode = SPI_MODE_MASTER;
 8000b6e:	4b16      	ldr	r3, [pc, #88]	@ (8000bc8 <MX_SPI2_Init+0x64>)
 8000b70:	f44f 7282 	mov.w	r2, #260	@ 0x104
 8000b74:	605a      	str	r2, [r3, #4]
  hspi2.Init.Direction = SPI_DIRECTION_2LINES;
 8000b76:	4b14      	ldr	r3, [pc, #80]	@ (8000bc8 <MX_SPI2_Init+0x64>)
 8000b78:	2200      	movs	r2, #0
 8000b7a:	609a      	str	r2, [r3, #8]
  hspi2.Init.DataSize = SPI_DATASIZE_8BIT;
 8000b7c:	4b12      	ldr	r3, [pc, #72]	@ (8000bc8 <MX_SPI2_Init+0x64>)
 8000b7e:	2200      	movs	r2, #0
 8000b80:	60da      	str	r2, [r3, #12]
  hspi2.Init.CLKPolarity = SPI_POLARITY_LOW;
 8000b82:	4b11      	ldr	r3, [pc, #68]	@ (8000bc8 <MX_SPI2_Init+0x64>)
 8000b84:	2200      	movs	r2, #0
 8000b86:	611a      	str	r2, [r3, #16]
  hspi2.Init.CLKPhase = SPI_PHASE_1EDGE;
 8000b88:	4b0f      	ldr	r3, [pc, #60]	@ (8000bc8 <MX_SPI2_Init+0x64>)
 8000b8a:	2200      	movs	r2, #0
 8000b8c:	615a      	str	r2, [r3, #20]
  hspi2.Init.NSS = SPI_NSS_SOFT;
 8000b8e:	4b0e      	ldr	r3, [pc, #56]	@ (8000bc8 <MX_SPI2_Init+0x64>)
 8000b90:	f44f 7200 	mov.w	r2, #512	@ 0x200
 8000b94:	619a      	str	r2, [r3, #24]
  hspi2.Init.BaudRatePrescaler = SPI_BAUDRATEPRESCALER_2;
 8000b96:	4b0c      	ldr	r3, [pc, #48]	@ (8000bc8 <MX_SPI2_Init+0x64>)
 8000b98:	2200      	movs	r2, #0
 8000b9a:	61da      	str	r2, [r3, #28]
  hspi2.Init.FirstBit = SPI_FIRSTBIT_MSB;
 8000b9c:	4b0a      	ldr	r3, [pc, #40]	@ (8000bc8 <MX_SPI2_Init+0x64>)
 8000b9e:	2200      	movs	r2, #0
 8000ba0:	621a      	str	r2, [r3, #32]
  hspi2.Init.TIMode = SPI_TIMODE_DISABLE;
 8000ba2:	4b09      	ldr	r3, [pc, #36]	@ (8000bc8 <MX_SPI2_Init+0x64>)
 8000ba4:	2200      	movs	r2, #0
 8000ba6:	625a      	str	r2, [r3, #36]	@ 0x24
  hspi2.Init.CRCCalculation = SPI_CRCCALCULATION_DISABLE;
 8000ba8:	4b07      	ldr	r3, [pc, #28]	@ (8000bc8 <MX_SPI2_Init+0x64>)
 8000baa:	2200      	movs	r2, #0
 8000bac:	629a      	str	r2, [r3, #40]	@ 0x28
  hspi2.Init.CRCPolynomial = 10;
 8000bae:	4b06      	ldr	r3, [pc, #24]	@ (8000bc8 <MX_SPI2_Init+0x64>)
 8000bb0:	220a      	movs	r2, #10
 8000bb2:	62da      	str	r2, [r3, #44]	@ 0x2c
  if (HAL_SPI_Init(&hspi2) != HAL_OK)
 8000bb4:	4804      	ldr	r0, [pc, #16]	@ (8000bc8 <MX_SPI2_Init+0x64>)
 8000bb6:	f001 f947 	bl	8001e48 <HAL_SPI_Init>
 8000bba:	4603      	mov	r3, r0
 8000bbc:	2b00      	cmp	r3, #0
 8000bbe:	d001      	beq.n	8000bc4 <MX_SPI2_Init+0x60>
  {
    Error_Handler();
 8000bc0:	f000 f8cc 	bl	8000d5c <Error_Handler>
  }
  /* USER CODE BEGIN SPI2_Init 2 */

  /* USER CODE END SPI2_Init 2 */

}
 8000bc4:	bf00      	nop
 8000bc6:	bd80      	pop	{r7, pc}
 8000bc8:	200000c0 	.word	0x200000c0
 8000bcc:	40003800 	.word	0x40003800

08000bd0 <MX_TIM2_Init>:
  * @brief TIM2 Initialization Function
  * @param None
  * @retval None
  */
static void MX_TIM2_Init(void)
{
 8000bd0:	b580      	push	{r7, lr}
 8000bd2:	b086      	sub	sp, #24
 8000bd4:	af00      	add	r7, sp, #0

  /* USER CODE BEGIN TIM2_Init 0 */

  /* USER CODE END TIM2_Init 0 */

  TIM_ClockConfigTypeDef sClockSourceConfig = {0};
 8000bd6:	f107 0308 	add.w	r3, r7, #8
 8000bda:	2200      	movs	r2, #0
 8000bdc:	601a      	str	r2, [r3, #0]
 8000bde:	605a      	str	r2, [r3, #4]
 8000be0:	609a      	str	r2, [r3, #8]
 8000be2:	60da      	str	r2, [r3, #12]
  TIM_MasterConfigTypeDef sMasterConfig = {0};
 8000be4:	463b      	mov	r3, r7
 8000be6:	2200      	movs	r2, #0
 8000be8:	601a      	str	r2, [r3, #0]
 8000bea:	605a      	str	r2, [r3, #4]

  /* USER CODE BEGIN TIM2_Init 1 */

  /* USER CODE END TIM2_Init 1 */
  htim2.Instance = TIM2;
 8000bec:	4b1d      	ldr	r3, [pc, #116]	@ (8000c64 <MX_TIM2_Init+0x94>)
 8000bee:	f04f 4280 	mov.w	r2, #1073741824	@ 0x40000000
 8000bf2:	601a      	str	r2, [r3, #0]
  htim2.Init.Prescaler = 7999;
 8000bf4:	4b1b      	ldr	r3, [pc, #108]	@ (8000c64 <MX_TIM2_Init+0x94>)
 8000bf6:	f641 723f 	movw	r2, #7999	@ 0x1f3f
 8000bfa:	605a      	str	r2, [r3, #4]
  htim2.Init.CounterMode = TIM_COUNTERMODE_UP;
 8000bfc:	4b19      	ldr	r3, [pc, #100]	@ (8000c64 <MX_TIM2_Init+0x94>)
 8000bfe:	2200      	movs	r2, #0
 8000c00:	609a      	str	r2, [r3, #8]
  htim2.Init.Period = 9;
 8000c02:	4b18      	ldr	r3, [pc, #96]	@ (8000c64 <MX_TIM2_Init+0x94>)
 8000c04:	2209      	movs	r2, #9
 8000c06:	60da      	str	r2, [r3, #12]
  htim2.Init.ClockDivision = TIM_CLOCKDIVISION_DIV1;
 8000c08:	4b16      	ldr	r3, [pc, #88]	@ (8000c64 <MX_TIM2_Init+0x94>)
 8000c0a:	2200      	movs	r2, #0
 8000c0c:	611a      	str	r2, [r3, #16]
  htim2.Init.AutoReloadPreload = TIM_AUTORELOAD_PRELOAD_DISABLE;
 8000c0e:	4b15      	ldr	r3, [pc, #84]	@ (8000c64 <MX_TIM2_Init+0x94>)
 8000c10:	2200      	movs	r2, #0
 8000c12:	619a      	str	r2, [r3, #24]
  if (HAL_TIM_Base_Init(&htim2) != HAL_OK)
 8000c14:	4813      	ldr	r0, [pc, #76]	@ (8000c64 <MX_TIM2_Init+0x94>)
 8000c16:	f001 fb85 	bl	8002324 <HAL_TIM_Base_Init>
 8000c1a:	4603      	mov	r3, r0
 8000c1c:	2b00      	cmp	r3, #0
 8000c1e:	d001      	beq.n	8000c24 <MX_TIM2_Init+0x54>
  {
    Error_Handler();
 8000c20:	f000 f89c 	bl	8000d5c <Error_Handler>
  }
  sClockSourceConfig.ClockSource = TIM_CLOCKSOURCE_INTERNAL;
 8000c24:	f44f 5380 	mov.w	r3, #4096	@ 0x1000
 8000c28:	60bb      	str	r3, [r7, #8]
  if (HAL_TIM_ConfigClockSource(&htim2, &sClockSourceConfig) != HAL_OK)
 8000c2a:	f107 0308 	add.w	r3, r7, #8
 8000c2e:	4619      	mov	r1, r3
 8000c30:	480c      	ldr	r0, [pc, #48]	@ (8000c64 <MX_TIM2_Init+0x94>)
 8000c32:	f001 fd21 	bl	8002678 <HAL_TIM_ConfigClockSource>
 8000c36:	4603      	mov	r3, r0
 8000c38:	2b00      	cmp	r3, #0
 8000c3a:	d001      	beq.n	8000c40 <MX_TIM2_Init+0x70>
  {
    Error_Handler();
 8000c3c:	f000 f88e 	bl	8000d5c <Error_Handler>
  }
  sMasterConfig.MasterOutputTrigger = TIM_TRGO_RESET;
 8000c40:	2300      	movs	r3, #0
 8000c42:	603b      	str	r3, [r7, #0]
  sMasterConfig.MasterSlaveMode = TIM_MASTERSLAVEMODE_DISABLE;
 8000c44:	2300      	movs	r3, #0
 8000c46:	607b      	str	r3, [r7, #4]
  if (HAL_TIMEx_MasterConfigSynchronization(&htim2, &sMasterConfig) != HAL_OK)
 8000c48:	463b      	mov	r3, r7
 8000c4a:	4619      	mov	r1, r3
 8000c4c:	4805      	ldr	r0, [pc, #20]	@ (8000c64 <MX_TIM2_Init+0x94>)
 8000c4e:	f001 fef7 	bl	8002a40 <HAL_TIMEx_MasterConfigSynchronization>
 8000c52:	4603      	mov	r3, r0
 8000c54:	2b00      	cmp	r3, #0
 8000c56:	d001      	beq.n	8000c5c <MX_TIM2_Init+0x8c>
  {
    Error_Handler();
 8000c58:	f000 f880 	bl	8000d5c <Error_Handler>
  }
  /* USER CODE BEGIN TIM2_Init 2 */

  /* USER CODE END TIM2_Init 2 */

}
 8000c5c:	bf00      	nop
 8000c5e:	3718      	adds	r7, #24
 8000c60:	46bd      	mov	sp, r7
 8000c62:	bd80      	pop	{r7, pc}
 8000c64:	20000118 	.word	0x20000118

08000c68 <MX_GPIO_Init>:
  * @brief GPIO Initialization Function
  * @param None
  * @retval None
  */
static void MX_GPIO_Init(void)
{
 8000c68:	b580      	push	{r7, lr}
 8000c6a:	b086      	sub	sp, #24
 8000c6c:	af00      	add	r7, sp, #0
  GPIO_InitTypeDef GPIO_InitStruct = {0};
 8000c6e:	f107 0308 	add.w	r3, r7, #8
 8000c72:	2200      	movs	r2, #0
 8000c74:	601a      	str	r2, [r3, #0]
 8000c76:	605a      	str	r2, [r3, #4]
 8000c78:	609a      	str	r2, [r3, #8]
 8000c7a:	60da      	str	r2, [r3, #12]
/* USER CODE BEGIN MX_GPIO_Init_1 */
/* USER CODE END MX_GPIO_Init_1 */

  /* GPIO Ports Clock Enable */
  __HAL_RCC_GPIOA_CLK_ENABLE();
 8000c7c:	4b2f      	ldr	r3, [pc, #188]	@ (8000d3c <MX_GPIO_Init+0xd4>)
 8000c7e:	699b      	ldr	r3, [r3, #24]
 8000c80:	4a2e      	ldr	r2, [pc, #184]	@ (8000d3c <MX_GPIO_Init+0xd4>)
 8000c82:	f043 0304 	orr.w	r3, r3, #4
 8000c86:	6193      	str	r3, [r2, #24]
 8000c88:	4b2c      	ldr	r3, [pc, #176]	@ (8000d3c <MX_GPIO_Init+0xd4>)
 8000c8a:	699b      	ldr	r3, [r3, #24]
 8000c8c:	f003 0304 	and.w	r3, r3, #4
 8000c90:	607b      	str	r3, [r7, #4]
 8000c92:	687b      	ldr	r3, [r7, #4]
  __HAL_RCC_GPIOB_CLK_ENABLE();
 8000c94:	4b29      	ldr	r3, [pc, #164]	@ (8000d3c <MX_GPIO_Init+0xd4>)
 8000c96:	699b      	ldr	r3, [r3, #24]
 8000c98:	4a28      	ldr	r2, [pc, #160]	@ (8000d3c <MX_GPIO_Init+0xd4>)
 8000c9a:	f043 0308 	orr.w	r3, r3, #8
 8000c9e:	6193      	str	r3, [r2, #24]
 8000ca0:	4b26      	ldr	r3, [pc, #152]	@ (8000d3c <MX_GPIO_Init+0xd4>)
 8000ca2:	699b      	ldr	r3, [r3, #24]
 8000ca4:	f003 0308 	and.w	r3, r3, #8
 8000ca8:	603b      	str	r3, [r7, #0]
 8000caa:	683b      	ldr	r3, [r7, #0]

  /*Configure GPIO pin Output Level */
  HAL_GPIO_WritePin(Latch_SPI1_GPIO_Port, Latch_SPI1_Pin, GPIO_PIN_RESET);
 8000cac:	2200      	movs	r2, #0
 8000cae:	2140      	movs	r1, #64	@ 0x40
 8000cb0:	4823      	ldr	r0, [pc, #140]	@ (8000d40 <MX_GPIO_Init+0xd8>)
 8000cb2:	f000 fcd2 	bl	800165a <HAL_GPIO_WritePin>

  /*Configure GPIO pin Output Level */
  HAL_GPIO_WritePin(GPIOB, Latch_SPI_Pin|OUT0_Pin|OUT1_Pin|OUT2_Pin
 8000cb6:	2200      	movs	r2, #0
 8000cb8:	f244 31c0 	movw	r1, #17344	@ 0x43c0
 8000cbc:	4821      	ldr	r0, [pc, #132]	@ (8000d44 <MX_GPIO_Init+0xdc>)
 8000cbe:	f000 fccc 	bl	800165a <HAL_GPIO_WritePin>
                          |OUT3_Pin, GPIO_PIN_RESET);

  /*Configure GPIO pin : Latch_SPI1_Pin */
  GPIO_InitStruct.Pin = Latch_SPI1_Pin;
 8000cc2:	2340      	movs	r3, #64	@ 0x40
 8000cc4:	60bb      	str	r3, [r7, #8]
  GPIO_InitStruct.Mode = GPIO_MODE_OUTPUT_PP;
 8000cc6:	2301      	movs	r3, #1
 8000cc8:	60fb      	str	r3, [r7, #12]
  GPIO_InitStruct.Pull = GPIO_NOPULL;
 8000cca:	2300      	movs	r3, #0
 8000ccc:	613b      	str	r3, [r7, #16]
  GPIO_InitStruct.Speed = GPIO_SPEED_FREQ_LOW;
 8000cce:	2302      	movs	r3, #2
 8000cd0:	617b      	str	r3, [r7, #20]
  HAL_GPIO_Init(Latch_SPI1_GPIO_Port, &GPIO_InitStruct);
 8000cd2:	f107 0308 	add.w	r3, r7, #8
 8000cd6:	4619      	mov	r1, r3
 8000cd8:	4819      	ldr	r0, [pc, #100]	@ (8000d40 <MX_GPIO_Init+0xd8>)
 8000cda:	f000 fb23 	bl	8001324 <HAL_GPIO_Init>

  /*Configure GPIO pins : D0_Pin D1_Pin D2_Pin D3_Pin
                           D4_Pin */
  GPIO_InitStruct.Pin = D0_Pin|D1_Pin|D2_Pin|D3_Pin
 8000cde:	231f      	movs	r3, #31
 8000ce0:	60bb      	str	r3, [r7, #8]
                          |D4_Pin;
  GPIO_InitStruct.Mode = GPIO_MODE_INPUT;
 8000ce2:	2300      	movs	r3, #0
 8000ce4:	60fb      	str	r3, [r7, #12]
  GPIO_InitStruct.Pull = GPIO_PULLDOWN;
 8000ce6:	2302      	movs	r3, #2
 8000ce8:	613b      	str	r3, [r7, #16]
  HAL_GPIO_Init(GPIOB, &GPIO_InitStruct);
 8000cea:	f107 0308 	add.w	r3, r7, #8
 8000cee:	4619      	mov	r1, r3
 8000cf0:	4814      	ldr	r0, [pc, #80]	@ (8000d44 <MX_GPIO_Init+0xdc>)
 8000cf2:	f000 fb17 	bl	8001324 <HAL_GPIO_Init>

  /*Configure GPIO pin : Latch_SPI_Pin */
  GPIO_InitStruct.Pin = Latch_SPI_Pin;
 8000cf6:	f44f 4380 	mov.w	r3, #16384	@ 0x4000
 8000cfa:	60bb      	str	r3, [r7, #8]
  GPIO_InitStruct.Mode = GPIO_MODE_OUTPUT_PP;
 8000cfc:	2301      	movs	r3, #1
 8000cfe:	60fb      	str	r3, [r7, #12]
  GPIO_InitStruct.Pull = GPIO_NOPULL;
 8000d00:	2300      	movs	r3, #0
 8000d02:	613b      	str	r3, [r7, #16]
  GPIO_InitStruct.Speed = GPIO_SPEED_FREQ_HIGH;
 8000d04:	2303      	movs	r3, #3
 8000d06:	617b      	str	r3, [r7, #20]
  HAL_GPIO_Init(Latch_SPI_GPIO_Port, &GPIO_InitStruct);
 8000d08:	f107 0308 	add.w	r3, r7, #8
 8000d0c:	4619      	mov	r1, r3
 8000d0e:	480d      	ldr	r0, [pc, #52]	@ (8000d44 <MX_GPIO_Init+0xdc>)
 8000d10:	f000 fb08 	bl	8001324 <HAL_GPIO_Init>

  /*Configure GPIO pins : OUT0_Pin OUT1_Pin OUT2_Pin OUT3_Pin */
  GPIO_InitStruct.Pin = OUT0_Pin|OUT1_Pin|OUT2_Pin|OUT3_Pin;
 8000d14:	f44f 7370 	mov.w	r3, #960	@ 0x3c0
 8000d18:	60bb      	str	r3, [r7, #8]
  GPIO_InitStruct.Mode = GPIO_MODE_OUTPUT_PP;
 8000d1a:	2301      	movs	r3, #1
 8000d1c:	60fb      	str	r3, [r7, #12]
  GPIO_InitStruct.Pull = GPIO_NOPULL;
 8000d1e:	2300      	movs	r3, #0
 8000d20:	613b      	str	r3, [r7, #16]
  GPIO_InitStruct.Speed = GPIO_SPEED_FREQ_LOW;
 8000d22:	2302      	movs	r3, #2
 8000d24:	617b      	str	r3, [r7, #20]
  HAL_GPIO_Init(GPIOB, &GPIO_InitStruct);
 8000d26:	f107 0308 	add.w	r3, r7, #8
 8000d2a:	4619      	mov	r1, r3
 8000d2c:	4805      	ldr	r0, [pc, #20]	@ (8000d44 <MX_GPIO_Init+0xdc>)
 8000d2e:	f000 faf9 	bl	8001324 <HAL_GPIO_Init>

/* USER CODE BEGIN MX_GPIO_Init_2 */
/* USER CODE END MX_GPIO_Init_2 */
}
 8000d32:	bf00      	nop
 8000d34:	3718      	adds	r7, #24
 8000d36:	46bd      	mov	sp, r7
 8000d38:	bd80      	pop	{r7, pc}
 8000d3a:	bf00      	nop
 8000d3c:	40021000 	.word	0x40021000
 8000d40:	40010800 	.word	0x40010800
 8000d44:	40010c00 	.word	0x40010c00

08000d48 <HAL_TIM_PeriodElapsedCallback>:

/* USER CODE BEGIN 4 */
void HAL_TIM_PeriodElapsedCallback(TIM_HandleTypeDef *htim){
 8000d48:	b580      	push	{r7, lr}
 8000d4a:	b082      	sub	sp, #8
 8000d4c:	af00      	add	r7, sp, #0
 8000d4e:	6078      	str	r0, [r7, #4]
	timerRun();
 8000d50:	f000 f922 	bl	8000f98 <timerRun>

}
 8000d54:	bf00      	nop
 8000d56:	3708      	adds	r7, #8
 8000d58:	46bd      	mov	sp, r7
 8000d5a:	bd80      	pop	{r7, pc}

08000d5c <Error_Handler>:
/**
  * @brief  This function is executed in case of error occurrence.
  * @retval None
  */
void Error_Handler(void)
{
 8000d5c:	b480      	push	{r7}
 8000d5e:	af00      	add	r7, sp, #0
  \details Disables IRQ interrupts by setting the I-bit in the CPSR.
           Can only be executed in Privileged modes.
 */
__STATIC_FORCEINLINE void __disable_irq(void)
{
  __ASM volatile ("cpsid i" : : : "memory");
 8000d60:	b672      	cpsid	i
}
 8000d62:	bf00      	nop
  /* USER CODE BEGIN Error_Handler_Debug */
  /* User can add his own implementation to report the HAL error return state */
  __disable_irq();
  while (1) {
 8000d64:	bf00      	nop
 8000d66:	e7fd      	b.n	8000d64 <Error_Handler+0x8>

08000d68 <HAL_MspInit>:
/* USER CODE END 0 */
/**
  * Initializes the Global MSP.
  */
void HAL_MspInit(void)
{
 8000d68:	b480      	push	{r7}
 8000d6a:	b085      	sub	sp, #20
 8000d6c:	af00      	add	r7, sp, #0

  /* USER CODE BEGIN MspInit 0 */

  /* USER CODE END MspInit 0 */

  __HAL_RCC_AFIO_CLK_ENABLE();
 8000d6e:	4b15      	ldr	r3, [pc, #84]	@ (8000dc4 <HAL_MspInit+0x5c>)
 8000d70:	699b      	ldr	r3, [r3, #24]
 8000d72:	4a14      	ldr	r2, [pc, #80]	@ (8000dc4 <HAL_MspInit+0x5c>)
 8000d74:	f043 0301 	orr.w	r3, r3, #1
 8000d78:	6193      	str	r3, [r2, #24]
 8000d7a:	4b12      	ldr	r3, [pc, #72]	@ (8000dc4 <HAL_MspInit+0x5c>)
 8000d7c:	699b      	ldr	r3, [r3, #24]
 8000d7e:	f003 0301 	and.w	r3, r3, #1
 8000d82:	60bb      	str	r3, [r7, #8]
 8000d84:	68bb      	ldr	r3, [r7, #8]
  __HAL_RCC_PWR_CLK_ENABLE();
 8000d86:	4b0f      	ldr	r3, [pc, #60]	@ (8000dc4 <HAL_MspInit+0x5c>)
 8000d88:	69db      	ldr	r3, [r3, #28]
 8000d8a:	4a0e      	ldr	r2, [pc, #56]	@ (8000dc4 <HAL_MspInit+0x5c>)
 8000d8c:	f043 5380 	orr.w	r3, r3, #268435456	@ 0x10000000
 8000d90:	61d3      	str	r3, [r2, #28]
 8000d92:	4b0c      	ldr	r3, [pc, #48]	@ (8000dc4 <HAL_MspInit+0x5c>)
 8000d94:	69db      	ldr	r3, [r3, #28]
 8000d96:	f003 5380 	and.w	r3, r3, #268435456	@ 0x10000000
 8000d9a:	607b      	str	r3, [r7, #4]
 8000d9c:	687b      	ldr	r3, [r7, #4]

  /* System interrupt init*/

  /** NOJTAG: JTAG-DP Disabled and SW-DP Enabled
  */
  __HAL_AFIO_REMAP_SWJ_NOJTAG();
 8000d9e:	4b0a      	ldr	r3, [pc, #40]	@ (8000dc8 <HAL_MspInit+0x60>)
 8000da0:	685b      	ldr	r3, [r3, #4]
 8000da2:	60fb      	str	r3, [r7, #12]
 8000da4:	68fb      	ldr	r3, [r7, #12]
 8000da6:	f023 63e0 	bic.w	r3, r3, #117440512	@ 0x7000000
 8000daa:	60fb      	str	r3, [r7, #12]
 8000dac:	68fb      	ldr	r3, [r7, #12]
 8000dae:	f043 7300 	orr.w	r3, r3, #33554432	@ 0x2000000
 8000db2:	60fb      	str	r3, [r7, #12]
 8000db4:	4a04      	ldr	r2, [pc, #16]	@ (8000dc8 <HAL_MspInit+0x60>)
 8000db6:	68fb      	ldr	r3, [r7, #12]
 8000db8:	6053      	str	r3, [r2, #4]

  /* USER CODE BEGIN MspInit 1 */

  /* USER CODE END MspInit 1 */
}
 8000dba:	bf00      	nop
 8000dbc:	3714      	adds	r7, #20
 8000dbe:	46bd      	mov	sp, r7
 8000dc0:	bc80      	pop	{r7}
 8000dc2:	4770      	bx	lr
 8000dc4:	40021000 	.word	0x40021000
 8000dc8:	40010000 	.word	0x40010000

08000dcc <HAL_SPI_MspInit>:
* This function configures the hardware resources used in this example
* @param hspi: SPI handle pointer
* @retval None
*/
void HAL_SPI_MspInit(SPI_HandleTypeDef* hspi)
{
 8000dcc:	b580      	push	{r7, lr}
 8000dce:	b08a      	sub	sp, #40	@ 0x28
 8000dd0:	af00      	add	r7, sp, #0
 8000dd2:	6078      	str	r0, [r7, #4]
  GPIO_InitTypeDef GPIO_InitStruct = {0};
 8000dd4:	f107 0318 	add.w	r3, r7, #24
 8000dd8:	2200      	movs	r2, #0
 8000dda:	601a      	str	r2, [r3, #0]
 8000ddc:	605a      	str	r2, [r3, #4]
 8000dde:	609a      	str	r2, [r3, #8]
 8000de0:	60da      	str	r2, [r3, #12]
  if(hspi->Instance==SPI1)
 8000de2:	687b      	ldr	r3, [r7, #4]
 8000de4:	681b      	ldr	r3, [r3, #0]
 8000de6:	4a2b      	ldr	r2, [pc, #172]	@ (8000e94 <HAL_SPI_MspInit+0xc8>)
 8000de8:	4293      	cmp	r3, r2
 8000dea:	d124      	bne.n	8000e36 <HAL_SPI_MspInit+0x6a>
  {
  /* USER CODE BEGIN SPI1_MspInit 0 */

  /* USER CODE END SPI1_MspInit 0 */
    /* Peripheral clock enable */
    __HAL_RCC_SPI1_CLK_ENABLE();
 8000dec:	4b2a      	ldr	r3, [pc, #168]	@ (8000e98 <HAL_SPI_MspInit+0xcc>)
 8000dee:	699b      	ldr	r3, [r3, #24]
 8000df0:	4a29      	ldr	r2, [pc, #164]	@ (8000e98 <HAL_SPI_MspInit+0xcc>)
 8000df2:	f443 5380 	orr.w	r3, r3, #4096	@ 0x1000
 8000df6:	6193      	str	r3, [r2, #24]
 8000df8:	4b27      	ldr	r3, [pc, #156]	@ (8000e98 <HAL_SPI_MspInit+0xcc>)
 8000dfa:	699b      	ldr	r3, [r3, #24]
 8000dfc:	f403 5380 	and.w	r3, r3, #4096	@ 0x1000
 8000e00:	617b      	str	r3, [r7, #20]
 8000e02:	697b      	ldr	r3, [r7, #20]

    __HAL_RCC_GPIOA_CLK_ENABLE();
 8000e04:	4b24      	ldr	r3, [pc, #144]	@ (8000e98 <HAL_SPI_MspInit+0xcc>)
 8000e06:	699b      	ldr	r3, [r3, #24]
 8000e08:	4a23      	ldr	r2, [pc, #140]	@ (8000e98 <HAL_SPI_MspInit+0xcc>)
 8000e0a:	f043 0304 	orr.w	r3, r3, #4
 8000e0e:	6193      	str	r3, [r2, #24]
 8000e10:	4b21      	ldr	r3, [pc, #132]	@ (8000e98 <HAL_SPI_MspInit+0xcc>)
 8000e12:	699b      	ldr	r3, [r3, #24]
 8000e14:	f003 0304 	and.w	r3, r3, #4
 8000e18:	613b      	str	r3, [r7, #16]
 8000e1a:	693b      	ldr	r3, [r7, #16]
    /**SPI1 GPIO Configuration
    PA5     ------> SPI1_SCK
    PA7     ------> SPI1_MOSI
    */
    GPIO_InitStruct.Pin = GPIO_PIN_5|GPIO_PIN_7;
 8000e1c:	23a0      	movs	r3, #160	@ 0xa0
 8000e1e:	61bb      	str	r3, [r7, #24]
    GPIO_InitStruct.Mode = GPIO_MODE_AF_PP;
 8000e20:	2302      	movs	r3, #2
 8000e22:	61fb      	str	r3, [r7, #28]
    GPIO_InitStruct.Speed = GPIO_SPEED_FREQ_HIGH;
 8000e24:	2303      	movs	r3, #3
 8000e26:	627b      	str	r3, [r7, #36]	@ 0x24
    HAL_GPIO_Init(GPIOA, &GPIO_InitStruct);
 8000e28:	f107 0318 	add.w	r3, r7, #24
 8000e2c:	4619      	mov	r1, r3
 8000e2e:	481b      	ldr	r0, [pc, #108]	@ (8000e9c <HAL_SPI_MspInit+0xd0>)
 8000e30:	f000 fa78 	bl	8001324 <HAL_GPIO_Init>
  /* USER CODE BEGIN SPI2_MspInit 1 */

  /* USER CODE END SPI2_MspInit 1 */
  }

}
 8000e34:	e029      	b.n	8000e8a <HAL_SPI_MspInit+0xbe>
  else if(hspi->Instance==SPI2)
 8000e36:	687b      	ldr	r3, [r7, #4]
 8000e38:	681b      	ldr	r3, [r3, #0]
 8000e3a:	4a19      	ldr	r2, [pc, #100]	@ (8000ea0 <HAL_SPI_MspInit+0xd4>)
 8000e3c:	4293      	cmp	r3, r2
 8000e3e:	d124      	bne.n	8000e8a <HAL_SPI_MspInit+0xbe>
    __HAL_RCC_SPI2_CLK_ENABLE();
 8000e40:	4b15      	ldr	r3, [pc, #84]	@ (8000e98 <HAL_SPI_MspInit+0xcc>)
 8000e42:	69db      	ldr	r3, [r3, #28]
 8000e44:	4a14      	ldr	r2, [pc, #80]	@ (8000e98 <HAL_SPI_MspInit+0xcc>)
 8000e46:	f443 4380 	orr.w	r3, r3, #16384	@ 0x4000
 8000e4a:	61d3      	str	r3, [r2, #28]
 8000e4c:	4b12      	ldr	r3, [pc, #72]	@ (8000e98 <HAL_SPI_MspInit+0xcc>)
 8000e4e:	69db      	ldr	r3, [r3, #28]
 8000e50:	f403 4380 	and.w	r3, r3, #16384	@ 0x4000
 8000e54:	60fb      	str	r3, [r7, #12]
 8000e56:	68fb      	ldr	r3, [r7, #12]
    __HAL_RCC_GPIOB_CLK_ENABLE();
 8000e58:	4b0f      	ldr	r3, [pc, #60]	@ (8000e98 <HAL_SPI_MspInit+0xcc>)
 8000e5a:	699b      	ldr	r3, [r3, #24]
 8000e5c:	4a0e      	ldr	r2, [pc, #56]	@ (8000e98 <HAL_SPI_MspInit+0xcc>)
 8000e5e:	f043 0308 	orr.w	r3, r3, #8
 8000e62:	6193      	str	r3, [r2, #24]
 8000e64:	4b0c      	ldr	r3, [pc, #48]	@ (8000e98 <HAL_SPI_MspInit+0xcc>)
 8000e66:	699b      	ldr	r3, [r3, #24]
 8000e68:	f003 0308 	and.w	r3, r3, #8
 8000e6c:	60bb      	str	r3, [r7, #8]
 8000e6e:	68bb      	ldr	r3, [r7, #8]
    GPIO_InitStruct.Pin = GPIO_PIN_13|GPIO_PIN_15;
 8000e70:	f44f 4320 	mov.w	r3, #40960	@ 0xa000
 8000e74:	61bb      	str	r3, [r7, #24]
    GPIO_InitStruct.Mode = GPIO_MODE_AF_PP;
 8000e76:	2302      	movs	r3, #2
 8000e78:	61fb      	str	r3, [r7, #28]
    GPIO_InitStruct.Speed = GPIO_SPEED_FREQ_HIGH;
 8000e7a:	2303      	movs	r3, #3
 8000e7c:	627b      	str	r3, [r7, #36]	@ 0x24
    HAL_GPIO_Init(GPIOB, &GPIO_InitStruct);
 8000e7e:	f107 0318 	add.w	r3, r7, #24
 8000e82:	4619      	mov	r1, r3
 8000e84:	4807      	ldr	r0, [pc, #28]	@ (8000ea4 <HAL_SPI_MspInit+0xd8>)
 8000e86:	f000 fa4d 	bl	8001324 <HAL_GPIO_Init>
}
 8000e8a:	bf00      	nop
 8000e8c:	3728      	adds	r7, #40	@ 0x28
 8000e8e:	46bd      	mov	sp, r7
 8000e90:	bd80      	pop	{r7, pc}
 8000e92:	bf00      	nop
 8000e94:	40013000 	.word	0x40013000
 8000e98:	40021000 	.word	0x40021000
 8000e9c:	40010800 	.word	0x40010800
 8000ea0:	40003800 	.word	0x40003800
 8000ea4:	40010c00 	.word	0x40010c00

08000ea8 <HAL_TIM_Base_MspInit>:
* This function configures the hardware resources used in this example
* @param htim_base: TIM_Base handle pointer
* @retval None
*/
void HAL_TIM_Base_MspInit(TIM_HandleTypeDef* htim_base)
{
 8000ea8:	b580      	push	{r7, lr}
 8000eaa:	b084      	sub	sp, #16
 8000eac:	af00      	add	r7, sp, #0
 8000eae:	6078      	str	r0, [r7, #4]
  if(htim_base->Instance==TIM2)
 8000eb0:	687b      	ldr	r3, [r7, #4]
 8000eb2:	681b      	ldr	r3, [r3, #0]
 8000eb4:	f1b3 4f80 	cmp.w	r3, #1073741824	@ 0x40000000
 8000eb8:	d113      	bne.n	8000ee2 <HAL_TIM_Base_MspInit+0x3a>
  {
  /* USER CODE BEGIN TIM2_MspInit 0 */

  /* USER CODE END TIM2_MspInit 0 */
    /* Peripheral clock enable */
    __HAL_RCC_TIM2_CLK_ENABLE();
 8000eba:	4b0c      	ldr	r3, [pc, #48]	@ (8000eec <HAL_TIM_Base_MspInit+0x44>)
 8000ebc:	69db      	ldr	r3, [r3, #28]
 8000ebe:	4a0b      	ldr	r2, [pc, #44]	@ (8000eec <HAL_TIM_Base_MspInit+0x44>)
 8000ec0:	f043 0301 	orr.w	r3, r3, #1
 8000ec4:	61d3      	str	r3, [r2, #28]
 8000ec6:	4b09      	ldr	r3, [pc, #36]	@ (8000eec <HAL_TIM_Base_MspInit+0x44>)
 8000ec8:	69db      	ldr	r3, [r3, #28]
 8000eca:	f003 0301 	and.w	r3, r3, #1
 8000ece:	60fb      	str	r3, [r7, #12]
 8000ed0:	68fb      	ldr	r3, [r7, #12]
    /* TIM2 interrupt Init */
    HAL_NVIC_SetPriority(TIM2_IRQn, 1, 0);
 8000ed2:	2200      	movs	r2, #0
 8000ed4:	2101      	movs	r1, #1
 8000ed6:	201c      	movs	r0, #28
 8000ed8:	f000 f9ed 	bl	80012b6 <HAL_NVIC_SetPriority>
    HAL_NVIC_EnableIRQ(TIM2_IRQn);
 8000edc:	201c      	movs	r0, #28
 8000ede:	f000 fa06 	bl	80012ee <HAL_NVIC_EnableIRQ>
  /* USER CODE BEGIN TIM2_MspInit 1 */

  /* USER CODE END TIM2_MspInit 1 */
  }

}
 8000ee2:	bf00      	nop
 8000ee4:	3710      	adds	r7, #16
 8000ee6:	46bd      	mov	sp, r7
 8000ee8:	bd80      	pop	{r7, pc}
 8000eea:	bf00      	nop
 8000eec:	40021000 	.word	0x40021000

08000ef0 <NMI_Handler>:
/******************************************************************************/
/**
  * @brief This function handles Non maskable interrupt.
  */
void NMI_Handler(void)
{
 8000ef0:	b480      	push	{r7}
 8000ef2:	af00      	add	r7, sp, #0
  /* USER CODE BEGIN NonMaskableInt_IRQn 0 */

  /* USER CODE END NonMaskableInt_IRQn 0 */
  /* USER CODE BEGIN NonMaskableInt_IRQn 1 */
   while (1)
 8000ef4:	bf00      	nop
 8000ef6:	e7fd      	b.n	8000ef4 <NMI_Handler+0x4>

08000ef8 <HardFault_Handler>:

/**
  * @brief This function handles Hard fault interrupt.
  */
void HardFault_Handler(void)
{
 8000ef8:	b480      	push	{r7}
 8000efa:	af00      	add	r7, sp, #0
  /* USER CODE BEGIN HardFault_IRQn 0 */

  /* USER CODE END HardFault_IRQn 0 */
  while (1)
 8000efc:	bf00      	nop
 8000efe:	e7fd      	b.n	8000efc <HardFault_Handler+0x4>

08000f00 <MemManage_Handler>:

/**
  * @brief This function handles Memory management fault.
  */
void MemManage_Handler(void)
{
 8000f00:	b480      	push	{r7}
 8000f02:	af00      	add	r7, sp, #0
  /* USER CODE BEGIN MemoryManagement_IRQn 0 */

  /* USER CODE END MemoryManagement_IRQn 0 */
  while (1)
 8000f04:	bf00      	nop
 8000f06:	e7fd      	b.n	8000f04 <MemManage_Handler+0x4>

08000f08 <BusFault_Handler>:

/**
  * @brief This function handles Prefetch fault, memory access fault.
  */
void BusFault_Handler(void)
{
 8000f08:	b480      	push	{r7}
 8000f0a:	af00      	add	r7, sp, #0
  /* USER CODE BEGIN BusFault_IRQn 0 */

  /* USER CODE END BusFault_IRQn 0 */
  while (1)
 8000f0c:	bf00      	nop
 8000f0e:	e7fd      	b.n	8000f0c <BusFault_Handler+0x4>

08000f10 <UsageFault_Handler>:

/**
  * @brief This function handles Undefined instruction or illegal state.
  */
void UsageFault_Handler(void)
{
 8000f10:	b480      	push	{r7}
 8000f12:	af00      	add	r7, sp, #0
  /* USER CODE BEGIN UsageFault_IRQn 0 */

  /* USER CODE END UsageFault_IRQn 0 */
  while (1)
 8000f14:	bf00      	nop
 8000f16:	e7fd      	b.n	8000f14 <UsageFault_Handler+0x4>

08000f18 <SVC_Handler>:

/**
  * @brief This function handles System service call via SWI instruction.
  */
void SVC_Handler(void)
{
 8000f18:	b480      	push	{r7}
 8000f1a:	af00      	add	r7, sp, #0

  /* USER CODE END SVCall_IRQn 0 */
  /* USER CODE BEGIN SVCall_IRQn 1 */

  /* USER CODE END SVCall_IRQn 1 */
}
 8000f1c:	bf00      	nop
 8000f1e:	46bd      	mov	sp, r7
 8000f20:	bc80      	pop	{r7}
 8000f22:	4770      	bx	lr

08000f24 <DebugMon_Handler>:

/**
  * @brief This function handles Debug monitor.
  */
void DebugMon_Handler(void)
{
 8000f24:	b480      	push	{r7}
 8000f26:	af00      	add	r7, sp, #0

  /* USER CODE END DebugMonitor_IRQn 0 */
  /* USER CODE BEGIN DebugMonitor_IRQn 1 */

  /* USER CODE END DebugMonitor_IRQn 1 */
}
 8000f28:	bf00      	nop
 8000f2a:	46bd      	mov	sp, r7
 8000f2c:	bc80      	pop	{r7}
 8000f2e:	4770      	bx	lr

08000f30 <PendSV_Handler>:

/**
  * @brief This function handles Pendable request for system service.
  */
void PendSV_Handler(void)
{
 8000f30:	b480      	push	{r7}
 8000f32:	af00      	add	r7, sp, #0

  /* USER CODE END PendSV_IRQn 0 */
  /* USER CODE BEGIN PendSV_IRQn 1 */

  /* USER CODE END PendSV_IRQn 1 */
}
 8000f34:	bf00      	nop
 8000f36:	46bd      	mov	sp, r7
 8000f38:	bc80      	pop	{r7}
 8000f3a:	4770      	bx	lr

08000f3c <SysTick_Handler>:

/**
  * @brief This function handles System tick timer.
  */
void SysTick_Handler(void)
{
 8000f3c:	b580      	push	{r7, lr}
 8000f3e:	af00      	add	r7, sp, #0
  /* USER CODE BEGIN SysTick_IRQn 0 */

  /* USER CODE END SysTick_IRQn 0 */
  HAL_IncTick();
 8000f40:	f000 f8c6 	bl	80010d0 <HAL_IncTick>
  /* USER CODE BEGIN SysTick_IRQn 1 */

  /* USER CODE END SysTick_IRQn 1 */
}
 8000f44:	bf00      	nop
 8000f46:	bd80      	pop	{r7, pc}

08000f48 <TIM2_IRQHandler>:

/**
  * @brief This function handles TIM2 global interrupt.
  */
void TIM2_IRQHandler(void)
{
 8000f48:	b580      	push	{r7, lr}
 8000f4a:	af00      	add	r7, sp, #0
  /* USER CODE BEGIN TIM2_IRQn 0 */

  /* USER CODE END TIM2_IRQn 0 */
  HAL_TIM_IRQHandler(&htim2);
 8000f4c:	4802      	ldr	r0, [pc, #8]	@ (8000f58 <TIM2_IRQHandler+0x10>)
 8000f4e:	f001 fa8b 	bl	8002468 <HAL_TIM_IRQHandler>
  /* USER CODE BEGIN TIM2_IRQn 1 */

  /* USER CODE END TIM2_IRQn 1 */
}
 8000f52:	bf00      	nop
 8000f54:	bd80      	pop	{r7, pc}
 8000f56:	bf00      	nop
 8000f58:	20000118 	.word	0x20000118

08000f5c <SystemInit>:
  * @note   This function should be used only after reset.
  * @param  None
  * @retval None
  */
void SystemInit (void)
{
 8000f5c:	b480      	push	{r7}
 8000f5e:	af00      	add	r7, sp, #0

  /* Configure the Vector Table location -------------------------------------*/
#if defined(USER_VECT_TAB_ADDRESS)
  SCB->VTOR = VECT_TAB_BASE_ADDRESS | VECT_TAB_OFFSET; /* Vector Table Relocation in Internal SRAM. */
#endif /* USER_VECT_TAB_ADDRESS */
}
 8000f60:	bf00      	nop
 8000f62:	46bd      	mov	sp, r7
 8000f64:	bc80      	pop	{r7}
 8000f66:	4770      	bx	lr

08000f68 <setTimer>:

#define TIMERNUM 10
int timer_counter[TIMERNUM]={0,0,0,0,0,0,0,0,0,0};
int timer_flag[TIMERNUM]={0,0,0,0,0,0,0,0,0,0};

void setTimer(int INDEX,int duration){
 8000f68:	b480      	push	{r7}
 8000f6a:	b083      	sub	sp, #12
 8000f6c:	af00      	add	r7, sp, #0
 8000f6e:	6078      	str	r0, [r7, #4]
 8000f70:	6039      	str	r1, [r7, #0]
	timer_counter[INDEX]=duration;
 8000f72:	4907      	ldr	r1, [pc, #28]	@ (8000f90 <setTimer+0x28>)
 8000f74:	687b      	ldr	r3, [r7, #4]
 8000f76:	683a      	ldr	r2, [r7, #0]
 8000f78:	f841 2023 	str.w	r2, [r1, r3, lsl #2]
	timer_flag[INDEX]=0;
 8000f7c:	4a05      	ldr	r2, [pc, #20]	@ (8000f94 <setTimer+0x2c>)
 8000f7e:	687b      	ldr	r3, [r7, #4]
 8000f80:	2100      	movs	r1, #0
 8000f82:	f842 1023 	str.w	r1, [r2, r3, lsl #2]
}
 8000f86:	bf00      	nop
 8000f88:	370c      	adds	r7, #12
 8000f8a:	46bd      	mov	sp, r7
 8000f8c:	bc80      	pop	{r7}
 8000f8e:	4770      	bx	lr
 8000f90:	20000160 	.word	0x20000160
 8000f94:	20000188 	.word	0x20000188

08000f98 <timerRun>:

void timerRun(){
 8000f98:	b480      	push	{r7}
 8000f9a:	b083      	sub	sp, #12
 8000f9c:	af00      	add	r7, sp, #0
	for(int i=0;i<TIMERNUM;i++){
 8000f9e:	2300      	movs	r3, #0
 8000fa0:	607b      	str	r3, [r7, #4]
 8000fa2:	e01c      	b.n	8000fde <timerRun+0x46>
		if(timer_counter[i] > 0){
 8000fa4:	4a12      	ldr	r2, [pc, #72]	@ (8000ff0 <timerRun+0x58>)
 8000fa6:	687b      	ldr	r3, [r7, #4]
 8000fa8:	f852 3023 	ldr.w	r3, [r2, r3, lsl #2]
 8000fac:	2b00      	cmp	r3, #0
 8000fae:	dd13      	ble.n	8000fd8 <timerRun+0x40>
			timer_counter[i]--;
 8000fb0:	4a0f      	ldr	r2, [pc, #60]	@ (8000ff0 <timerRun+0x58>)
 8000fb2:	687b      	ldr	r3, [r7, #4]
 8000fb4:	f852 3023 	ldr.w	r3, [r2, r3, lsl #2]
 8000fb8:	1e5a      	subs	r2, r3, #1
 8000fba:	490d      	ldr	r1, [pc, #52]	@ (8000ff0 <timerRun+0x58>)
 8000fbc:	687b      	ldr	r3, [r7, #4]
 8000fbe:	f841 2023 	str.w	r2, [r1, r3, lsl #2]
			if(timer_counter[i] <=0){
 8000fc2:	4a0b      	ldr	r2, [pc, #44]	@ (8000ff0 <timerRun+0x58>)
 8000fc4:	687b      	ldr	r3, [r7, #4]
 8000fc6:	f852 3023 	ldr.w	r3, [r2, r3, lsl #2]
 8000fca:	2b00      	cmp	r3, #0
 8000fcc:	dc04      	bgt.n	8000fd8 <timerRun+0x40>
				timer_flag[i]=1;
 8000fce:	4a09      	ldr	r2, [pc, #36]	@ (8000ff4 <timerRun+0x5c>)
 8000fd0:	687b      	ldr	r3, [r7, #4]
 8000fd2:	2101      	movs	r1, #1
 8000fd4:	f842 1023 	str.w	r1, [r2, r3, lsl #2]
	for(int i=0;i<TIMERNUM;i++){
 8000fd8:	687b      	ldr	r3, [r7, #4]
 8000fda:	3301      	adds	r3, #1
 8000fdc:	607b      	str	r3, [r7, #4]
 8000fde:	687b      	ldr	r3, [r7, #4]
 8000fe0:	2b09      	cmp	r3, #9
 8000fe2:	dddf      	ble.n	8000fa4 <timerRun+0xc>
			}
		}
	}
}
 8000fe4:	bf00      	nop
 8000fe6:	bf00      	nop
 8000fe8:	370c      	adds	r7, #12
 8000fea:	46bd      	mov	sp, r7
 8000fec:	bc80      	pop	{r7}
 8000fee:	4770      	bx	lr
 8000ff0:	20000160 	.word	0x20000160
 8000ff4:	20000188 	.word	0x20000188

08000ff8 <Reset_Handler>:
 8000ff8:	f7ff ffb0 	bl	8000f5c <SystemInit>
 8000ffc:	480b      	ldr	r0, [pc, #44]	@ (800102c <LoopFillZerobss+0xe>)
 8000ffe:	490c      	ldr	r1, [pc, #48]	@ (8001030 <LoopFillZerobss+0x12>)
 8001000:	4a0c      	ldr	r2, [pc, #48]	@ (8001034 <LoopFillZerobss+0x16>)
 8001002:	2300      	movs	r3, #0
 8001004:	e002      	b.n	800100c <LoopCopyDataInit>

08001006 <CopyDataInit>:
 8001006:	58d4      	ldr	r4, [r2, r3]
 8001008:	50c4      	str	r4, [r0, r3]
 800100a:	3304      	adds	r3, #4

0800100c <LoopCopyDataInit>:
 800100c:	18c4      	adds	r4, r0, r3
 800100e:	428c      	cmp	r4, r1
 8001010:	d3f9      	bcc.n	8001006 <CopyDataInit>
 8001012:	4a09      	ldr	r2, [pc, #36]	@ (8001038 <LoopFillZerobss+0x1a>)
 8001014:	4c09      	ldr	r4, [pc, #36]	@ (800103c <LoopFillZerobss+0x1e>)
 8001016:	2300      	movs	r3, #0
 8001018:	e001      	b.n	800101e <LoopFillZerobss>

0800101a <FillZerobss>:
 800101a:	6013      	str	r3, [r2, #0]
 800101c:	3204      	adds	r2, #4

0800101e <LoopFillZerobss>:
 800101e:	42a2      	cmp	r2, r4
 8001020:	d3fb      	bcc.n	800101a <FillZerobss>
 8001022:	f001 fd85 	bl	8002b30 <__libc_init_array>
 8001026:	f7ff fcf3 	bl	8000a10 <main>
 800102a:	4770      	bx	lr
 800102c:	20000000 	.word	0x20000000
 8001030:	20000030 	.word	0x20000030
 8001034:	08002bd0 	.word	0x08002bd0
 8001038:	20000030 	.word	0x20000030
 800103c:	200001b4 	.word	0x200001b4

08001040 <ADC1_2_IRQHandler>:
 8001040:	e7fe      	b.n	8001040 <ADC1_2_IRQHandler>
	...

08001044 <HAL_Init>:
 8001044:	b580      	push	{r7, lr}
 8001046:	af00      	add	r7, sp, #0
 8001048:	4b08      	ldr	r3, [pc, #32]	@ (800106c <HAL_Init+0x28>)
 800104a:	681b      	ldr	r3, [r3, #0]
 800104c:	4a07      	ldr	r2, [pc, #28]	@ (800106c <HAL_Init+0x28>)
 800104e:	f043 0310 	orr.w	r3, r3, #16
 8001052:	6013      	str	r3, [r2, #0]
 8001054:	2003      	movs	r0, #3
 8001056:	f000 f923 	bl	80012a0 <HAL_NVIC_SetPriorityGrouping>
 800105a:	200f      	movs	r0, #15
 800105c:	f000 f808 	bl	8001070 <HAL_InitTick>
 8001060:	f7ff fe82 	bl	8000d68 <HAL_MspInit>
 8001064:	2300      	movs	r3, #0
 8001066:	4618      	mov	r0, r3
 8001068:	bd80      	pop	{r7, pc}
 800106a:	bf00      	nop
 800106c:	40022000 	.word	0x40022000

08001070 <HAL_InitTick>:
 8001070:	b580      	push	{r7, lr}
 8001072:	b082      	sub	sp, #8
 8001074:	af00      	add	r7, sp, #0
 8001076:	6078      	str	r0, [r7, #4]
 8001078:	4b12      	ldr	r3, [pc, #72]	@ (80010c4 <HAL_InitTick+0x54>)
 800107a:	681a      	ldr	r2, [r3, #0]
 800107c:	4b12      	ldr	r3, [pc, #72]	@ (80010c8 <HAL_InitTick+0x58>)
 800107e:	781b      	ldrb	r3, [r3, #0]
 8001080:	4619      	mov	r1, r3
 8001082:	f44f 737a 	mov.w	r3, #1000	@ 0x3e8
 8001086:	fbb3 f3f1 	udiv	r3, r3, r1
 800108a:	fbb2 f3f3 	udiv	r3, r2, r3
 800108e:	4618      	mov	r0, r3
 8001090:	f000 f93b 	bl	800130a <HAL_SYSTICK_Config>
 8001094:	4603      	mov	r3, r0
 8001096:	2b00      	cmp	r3, #0
 8001098:	d001      	beq.n	800109e <HAL_InitTick+0x2e>
 800109a:	2301      	movs	r3, #1
 800109c:	e00e      	b.n	80010bc <HAL_InitTick+0x4c>
 800109e:	687b      	ldr	r3, [r7, #4]
 80010a0:	2b0f      	cmp	r3, #15
 80010a2:	d80a      	bhi.n	80010ba <HAL_InitTick+0x4a>
 80010a4:	2200      	movs	r2, #0
 80010a6:	6879      	ldr	r1, [r7, #4]
 80010a8:	f04f 30ff 	mov.w	r0, #4294967295
 80010ac:	f000 f903 	bl	80012b6 <HAL_NVIC_SetPriority>
 80010b0:	4a06      	ldr	r2, [pc, #24]	@ (80010cc <HAL_InitTick+0x5c>)
 80010b2:	687b      	ldr	r3, [r7, #4]
 80010b4:	6013      	str	r3, [r2, #0]
 80010b6:	2300      	movs	r3, #0
 80010b8:	e000      	b.n	80010bc <HAL_InitTick+0x4c>
 80010ba:	2301      	movs	r3, #1
 80010bc:	4618      	mov	r0, r3
 80010be:	3708      	adds	r7, #8
 80010c0:	46bd      	mov	sp, r7
 80010c2:	bd80      	pop	{r7, pc}
 80010c4:	20000024 	.word	0x20000024
 80010c8:	2000002c 	.word	0x2000002c
 80010cc:	20000028 	.word	0x20000028

080010d0 <HAL_IncTick>:
 80010d0:	b480      	push	{r7}
 80010d2:	af00      	add	r7, sp, #0
 80010d4:	4b05      	ldr	r3, [pc, #20]	@ (80010ec <HAL_IncTick+0x1c>)
 80010d6:	781b      	ldrb	r3, [r3, #0]
 80010d8:	461a      	mov	r2, r3
 80010da:	4b05      	ldr	r3, [pc, #20]	@ (80010f0 <HAL_IncTick+0x20>)
 80010dc:	681b      	ldr	r3, [r3, #0]
 80010de:	4413      	add	r3, r2
 80010e0:	4a03      	ldr	r2, [pc, #12]	@ (80010f0 <HAL_IncTick+0x20>)
 80010e2:	6013      	str	r3, [r2, #0]
 80010e4:	bf00      	nop
 80010e6:	46bd      	mov	sp, r7
 80010e8:	bc80      	pop	{r7}
 80010ea:	4770      	bx	lr
 80010ec:	2000002c 	.word	0x2000002c
 80010f0:	200001b0 	.word	0x200001b0

080010f4 <HAL_GetTick>:
 80010f4:	b480      	push	{r7}
 80010f6:	af00      	add	r7, sp, #0
 80010f8:	4b02      	ldr	r3, [pc, #8]	@ (8001104 <HAL_GetTick+0x10>)
 80010fa:	681b      	ldr	r3, [r3, #0]
 80010fc:	4618      	mov	r0, r3
 80010fe:	46bd      	mov	sp, r7
 8001100:	bc80      	pop	{r7}
 8001102:	4770      	bx	lr
 8001104:	200001b0 	.word	0x200001b0

08001108 <__NVIC_SetPriorityGrouping>:
 8001108:	b480      	push	{r7}
 800110a:	b085      	sub	sp, #20
 800110c:	af00      	add	r7, sp, #0
 800110e:	6078      	str	r0, [r7, #4]
 8001110:	687b      	ldr	r3, [r7, #4]
 8001112:	f003 0307 	and.w	r3, r3, #7
 8001116:	60fb      	str	r3, [r7, #12]
 8001118:	4b0c      	ldr	r3, [pc, #48]	@ (800114c <__NVIC_SetPriorityGrouping+0x44>)
 800111a:	68db      	ldr	r3, [r3, #12]
 800111c:	60bb      	str	r3, [r7, #8]
 800111e:	68ba      	ldr	r2, [r7, #8]
 8001120:	f64f 03ff 	movw	r3, #63743	@ 0xf8ff
 8001124:	4013      	ands	r3, r2
 8001126:	60bb      	str	r3, [r7, #8]
 8001128:	68fb      	ldr	r3, [r7, #12]
 800112a:	021a      	lsls	r2, r3, #8
 800112c:	68bb      	ldr	r3, [r7, #8]
 800112e:	4313      	orrs	r3, r2
 8001130:	f043 63bf 	orr.w	r3, r3, #100139008	@ 0x5f80000
 8001134:	f443 3300 	orr.w	r3, r3, #131072	@ 0x20000
 8001138:	60bb      	str	r3, [r7, #8]
 800113a:	4a04      	ldr	r2, [pc, #16]	@ (800114c <__NVIC_SetPriorityGrouping+0x44>)
 800113c:	68bb      	ldr	r3, [r7, #8]
 800113e:	60d3      	str	r3, [r2, #12]
 8001140:	bf00      	nop
 8001142:	3714      	adds	r7, #20
 8001144:	46bd      	mov	sp, r7
 8001146:	bc80      	pop	{r7}
 8001148:	4770      	bx	lr
 800114a:	bf00      	nop
 800114c:	e000ed00 	.word	0xe000ed00

08001150 <__NVIC_GetPriorityGrouping>:
 8001150:	b480      	push	{r7}
 8001152:	af00      	add	r7, sp, #0
 8001154:	4b04      	ldr	r3, [pc, #16]	@ (8001168 <__NVIC_GetPriorityGrouping+0x18>)
 8001156:	68db      	ldr	r3, [r3, #12]
 8001158:	0a1b      	lsrs	r3, r3, #8
 800115a:	f003 0307 	and.w	r3, r3, #7
 800115e:	4618      	mov	r0, r3
 8001160:	46bd      	mov	sp, r7
 8001162:	bc80      	pop	{r7}
 8001164:	4770      	bx	lr
 8001166:	bf00      	nop
 8001168:	e000ed00 	.word	0xe000ed00

0800116c <__NVIC_EnableIRQ>:
 800116c:	b480      	push	{r7}
 800116e:	b083      	sub	sp, #12
 8001170:	af00      	add	r7, sp, #0
 8001172:	4603      	mov	r3, r0
 8001174:	71fb      	strb	r3, [r7, #7]
 8001176:	f997 3007 	ldrsb.w	r3, [r7, #7]
 800117a:	2b00      	cmp	r3, #0
 800117c:	db0b      	blt.n	8001196 <__NVIC_EnableIRQ+0x2a>
 800117e:	79fb      	ldrb	r3, [r7, #7]
 8001180:	f003 021f 	and.w	r2, r3, #31
 8001184:	4906      	ldr	r1, [pc, #24]	@ (80011a0 <__NVIC_EnableIRQ+0x34>)
 8001186:	f997 3007 	ldrsb.w	r3, [r7, #7]
 800118a:	095b      	lsrs	r3, r3, #5
 800118c:	2001      	movs	r0, #1
 800118e:	fa00 f202 	lsl.w	r2, r0, r2
 8001192:	f841 2023 	str.w	r2, [r1, r3, lsl #2]
 8001196:	bf00      	nop
 8001198:	370c      	adds	r7, #12
 800119a:	46bd      	mov	sp, r7
 800119c:	bc80      	pop	{r7}
 800119e:	4770      	bx	lr
 80011a0:	e000e100 	.word	0xe000e100

080011a4 <__NVIC_SetPriority>:
 80011a4:	b480      	push	{r7}
 80011a6:	b083      	sub	sp, #12
 80011a8:	af00      	add	r7, sp, #0
 80011aa:	4603      	mov	r3, r0
 80011ac:	6039      	str	r1, [r7, #0]
 80011ae:	71fb      	strb	r3, [r7, #7]
 80011b0:	f997 3007 	ldrsb.w	r3, [r7, #7]
 80011b4:	2b00      	cmp	r3, #0
 80011b6:	db0a      	blt.n	80011ce <__NVIC_SetPriority+0x2a>
 80011b8:	683b      	ldr	r3, [r7, #0]
 80011ba:	b2da      	uxtb	r2, r3
 80011bc:	490c      	ldr	r1, [pc, #48]	@ (80011f0 <__NVIC_SetPriority+0x4c>)
 80011be:	f997 3007 	ldrsb.w	r3, [r7, #7]
 80011c2:	0112      	lsls	r2, r2, #4
 80011c4:	b2d2      	uxtb	r2, r2
 80011c6:	440b      	add	r3, r1
 80011c8:	f883 2300 	strb.w	r2, [r3, #768]	@ 0x300
 80011cc:	e00a      	b.n	80011e4 <__NVIC_SetPriority+0x40>
 80011ce:	683b      	ldr	r3, [r7, #0]
 80011d0:	b2da      	uxtb	r2, r3
 80011d2:	4908      	ldr	r1, [pc, #32]	@ (80011f4 <__NVIC_SetPriority+0x50>)
 80011d4:	79fb      	ldrb	r3, [r7, #7]
 80011d6:	f003 030f 	and.w	r3, r3, #15
 80011da:	3b04      	subs	r3, #4
 80011dc:	0112      	lsls	r2, r2, #4
 80011de:	b2d2      	uxtb	r2, r2
 80011e0:	440b      	add	r3, r1
 80011e2:	761a      	strb	r2, [r3, #24]
 80011e4:	bf00      	nop
 80011e6:	370c      	adds	r7, #12
 80011e8:	46bd      	mov	sp, r7
 80011ea:	bc80      	pop	{r7}
 80011ec:	4770      	bx	lr
 80011ee:	bf00      	nop
 80011f0:	e000e100 	.word	0xe000e100
 80011f4:	e000ed00 	.word	0xe000ed00

080011f8 <NVIC_EncodePriority>:
 80011f8:	b480      	push	{r7}
 80011fa:	b089      	sub	sp, #36	@ 0x24
 80011fc:	af00      	add	r7, sp, #0
 80011fe:	60f8      	str	r0, [r7, #12]
 8001200:	60b9      	str	r1, [r7, #8]
 8001202:	607a      	str	r2, [r7, #4]
 8001204:	68fb      	ldr	r3, [r7, #12]
 8001206:	f003 0307 	and.w	r3, r3, #7
 800120a:	61fb      	str	r3, [r7, #28]
 800120c:	69fb      	ldr	r3, [r7, #28]
 800120e:	f1c3 0307 	rsb	r3, r3, #7
 8001212:	2b04      	cmp	r3, #4
 8001214:	bf28      	it	cs
 8001216:	2304      	movcs	r3, #4
 8001218:	61bb      	str	r3, [r7, #24]
 800121a:	69fb      	ldr	r3, [r7, #28]
 800121c:	3304      	adds	r3, #4
 800121e:	2b06      	cmp	r3, #6
 8001220:	d902      	bls.n	8001228 <NVIC_EncodePriority+0x30>
 8001222:	69fb      	ldr	r3, [r7, #28]
 8001224:	3b03      	subs	r3, #3
 8001226:	e000      	b.n	800122a <NVIC_EncodePriority+0x32>
 8001228:	2300      	movs	r3, #0
 800122a:	617b      	str	r3, [r7, #20]
 800122c:	f04f 32ff 	mov.w	r2, #4294967295
 8001230:	69bb      	ldr	r3, [r7, #24]
 8001232:	fa02 f303 	lsl.w	r3, r2, r3
 8001236:	43da      	mvns	r2, r3
 8001238:	68bb      	ldr	r3, [r7, #8]
 800123a:	401a      	ands	r2, r3
 800123c:	697b      	ldr	r3, [r7, #20]
 800123e:	409a      	lsls	r2, r3
 8001240:	f04f 31ff 	mov.w	r1, #4294967295
 8001244:	697b      	ldr	r3, [r7, #20]
 8001246:	fa01 f303 	lsl.w	r3, r1, r3
 800124a:	43d9      	mvns	r1, r3
 800124c:	687b      	ldr	r3, [r7, #4]
 800124e:	400b      	ands	r3, r1
 8001250:	4313      	orrs	r3, r2
 8001252:	4618      	mov	r0, r3
 8001254:	3724      	adds	r7, #36	@ 0x24
 8001256:	46bd      	mov	sp, r7
 8001258:	bc80      	pop	{r7}
 800125a:	4770      	bx	lr

0800125c <SysTick_Config>:
 800125c:	b580      	push	{r7, lr}
 800125e:	b082      	sub	sp, #8
 8001260:	af00      	add	r7, sp, #0
 8001262:	6078      	str	r0, [r7, #4]
 8001264:	687b      	ldr	r3, [r7, #4]
 8001266:	3b01      	subs	r3, #1
 8001268:	f1b3 7f80 	cmp.w	r3, #16777216	@ 0x1000000
 800126c:	d301      	bcc.n	8001272 <SysTick_Config+0x16>
 800126e:	2301      	movs	r3, #1
 8001270:	e00f      	b.n	8001292 <SysTick_Config+0x36>
 8001272:	4a0a      	ldr	r2, [pc, #40]	@ (800129c <SysTick_Config+0x40>)
 8001274:	687b      	ldr	r3, [r7, #4]
 8001276:	3b01      	subs	r3, #1
 8001278:	6053      	str	r3, [r2, #4]
 800127a:	210f      	movs	r1, #15
 800127c:	f04f 30ff 	mov.w	r0, #4294967295
 8001280:	f7ff ff90 	bl	80011a4 <__NVIC_SetPriority>
 8001284:	4b05      	ldr	r3, [pc, #20]	@ (800129c <SysTick_Config+0x40>)
 8001286:	2200      	movs	r2, #0
 8001288:	609a      	str	r2, [r3, #8]
 800128a:	4b04      	ldr	r3, [pc, #16]	@ (800129c <SysTick_Config+0x40>)
 800128c:	2207      	movs	r2, #7
 800128e:	601a      	str	r2, [r3, #0]
 8001290:	2300      	movs	r3, #0
 8001292:	4618      	mov	r0, r3
 8001294:	3708      	adds	r7, #8
 8001296:	46bd      	mov	sp, r7
 8001298:	bd80      	pop	{r7, pc}
 800129a:	bf00      	nop
 800129c:	e000e010 	.word	0xe000e010

080012a0 <HAL_NVIC_SetPriorityGrouping>:
 80012a0:	b580      	push	{r7, lr}
 80012a2:	b082      	sub	sp, #8
 80012a4:	af00      	add	r7, sp, #0
 80012a6:	6078      	str	r0, [r7, #4]
 80012a8:	6878      	ldr	r0, [r7, #4]
 80012aa:	f7ff ff2d 	bl	8001108 <__NVIC_SetPriorityGrouping>
 80012ae:	bf00      	nop
 80012b0:	3708      	adds	r7, #8
 80012b2:	46bd      	mov	sp, r7
 80012b4:	bd80      	pop	{r7, pc}

080012b6 <HAL_NVIC_SetPriority>:
 80012b6:	b580      	push	{r7, lr}
 80012b8:	b086      	sub	sp, #24
 80012ba:	af00      	add	r7, sp, #0
 80012bc:	4603      	mov	r3, r0
 80012be:	60b9      	str	r1, [r7, #8]
 80012c0:	607a      	str	r2, [r7, #4]
 80012c2:	73fb      	strb	r3, [r7, #15]
 80012c4:	2300      	movs	r3, #0
 80012c6:	617b      	str	r3, [r7, #20]
 80012c8:	f7ff ff42 	bl	8001150 <__NVIC_GetPriorityGrouping>
 80012cc:	6178      	str	r0, [r7, #20]
 80012ce:	687a      	ldr	r2, [r7, #4]
 80012d0:	68b9      	ldr	r1, [r7, #8]
 80012d2:	6978      	ldr	r0, [r7, #20]
 80012d4:	f7ff ff90 	bl	80011f8 <NVIC_EncodePriority>
 80012d8:	4602      	mov	r2, r0
 80012da:	f997 300f 	ldrsb.w	r3, [r7, #15]
 80012de:	4611      	mov	r1, r2
 80012e0:	4618      	mov	r0, r3
 80012e2:	f7ff ff5f 	bl	80011a4 <__NVIC_SetPriority>
 80012e6:	bf00      	nop
 80012e8:	3718      	adds	r7, #24
 80012ea:	46bd      	mov	sp, r7
 80012ec:	bd80      	pop	{r7, pc}

080012ee <HAL_NVIC_EnableIRQ>:
 80012ee:	b580      	push	{r7, lr}
 80012f0:	b082      	sub	sp, #8
 80012f2:	af00      	add	r7, sp, #0
 80012f4:	4603      	mov	r3, r0
 80012f6:	71fb      	strb	r3, [r7, #7]
 80012f8:	f997 3007 	ldrsb.w	r3, [r7, #7]
 80012fc:	4618      	mov	r0, r3
 80012fe:	f7ff ff35 	bl	800116c <__NVIC_EnableIRQ>
 8001302:	bf00      	nop
 8001304:	3708      	adds	r7, #8
 8001306:	46bd      	mov	sp, r7
 8001308:	bd80      	pop	{r7, pc}

0800130a <HAL_SYSTICK_Config>:
 800130a:	b580      	push	{r7, lr}
 800130c:	b082      	sub	sp, #8
 800130e:	af00      	add	r7, sp, #0
 8001310:	6078      	str	r0, [r7, #4]
 8001312:	6878      	ldr	r0, [r7, #4]
 8001314:	f7ff ffa2 	bl	800125c <SysTick_Config>
 8001318:	4603      	mov	r3, r0
 800131a:	4618      	mov	r0, r3
 800131c:	3708      	adds	r7, #8
 800131e:	46bd      	mov	sp, r7
 8001320:	bd80      	pop	{r7, pc}
	...

08001324 <HAL_GPIO_Init>:
 8001324:	b480      	push	{r7}
 8001326:	b08b      	sub	sp, #44	@ 0x2c
 8001328:	af00      	add	r7, sp, #0
 800132a:	6078      	str	r0, [r7, #4]
 800132c:	6039      	str	r1, [r7, #0]
 800132e:	2300      	movs	r3, #0
 8001330:	627b      	str	r3, [r7, #36]	@ 0x24
 8001332:	2300      	movs	r3, #0
 8001334:	623b      	str	r3, [r7, #32]
 8001336:	e169      	b.n	800160c <HAL_GPIO_Init+0x2e8>
 8001338:	2201      	movs	r2, #1
 800133a:	6a7b      	ldr	r3, [r7, #36]	@ 0x24
 800133c:	fa02 f303 	lsl.w	r3, r2, r3
 8001340:	61fb      	str	r3, [r7, #28]
 8001342:	683b      	ldr	r3, [r7, #0]
 8001344:	681b      	ldr	r3, [r3, #0]
 8001346:	69fa      	ldr	r2, [r7, #28]
 8001348:	4013      	ands	r3, r2
 800134a:	61bb      	str	r3, [r7, #24]
 800134c:	69ba      	ldr	r2, [r7, #24]
 800134e:	69fb      	ldr	r3, [r7, #28]
 8001350:	429a      	cmp	r2, r3
 8001352:	f040 8158 	bne.w	8001606 <HAL_GPIO_Init+0x2e2>
 8001356:	683b      	ldr	r3, [r7, #0]
 8001358:	685b      	ldr	r3, [r3, #4]
 800135a:	4a9a      	ldr	r2, [pc, #616]	@ (80015c4 <HAL_GPIO_Init+0x2a0>)
 800135c:	4293      	cmp	r3, r2
 800135e:	d05e      	beq.n	800141e <HAL_GPIO_Init+0xfa>
 8001360:	4a98      	ldr	r2, [pc, #608]	@ (80015c4 <HAL_GPIO_Init+0x2a0>)
 8001362:	4293      	cmp	r3, r2
 8001364:	d875      	bhi.n	8001452 <HAL_GPIO_Init+0x12e>
 8001366:	4a98      	ldr	r2, [pc, #608]	@ (80015c8 <HAL_GPIO_Init+0x2a4>)
 8001368:	4293      	cmp	r3, r2
 800136a:	d058      	beq.n	800141e <HAL_GPIO_Init+0xfa>
 800136c:	4a96      	ldr	r2, [pc, #600]	@ (80015c8 <HAL_GPIO_Init+0x2a4>)
 800136e:	4293      	cmp	r3, r2
 8001370:	d86f      	bhi.n	8001452 <HAL_GPIO_Init+0x12e>
 8001372:	4a96      	ldr	r2, [pc, #600]	@ (80015cc <HAL_GPIO_Init+0x2a8>)
 8001374:	4293      	cmp	r3, r2
 8001376:	d052      	beq.n	800141e <HAL_GPIO_Init+0xfa>
 8001378:	4a94      	ldr	r2, [pc, #592]	@ (80015cc <HAL_GPIO_Init+0x2a8>)
 800137a:	4293      	cmp	r3, r2
 800137c:	d869      	bhi.n	8001452 <HAL_GPIO_Init+0x12e>
 800137e:	4a94      	ldr	r2, [pc, #592]	@ (80015d0 <HAL_GPIO_Init+0x2ac>)
 8001380:	4293      	cmp	r3, r2
 8001382:	d04c      	beq.n	800141e <HAL_GPIO_Init+0xfa>
 8001384:	4a92      	ldr	r2, [pc, #584]	@ (80015d0 <HAL_GPIO_Init+0x2ac>)
 8001386:	4293      	cmp	r3, r2
 8001388:	d863      	bhi.n	8001452 <HAL_GPIO_Init+0x12e>
 800138a:	4a92      	ldr	r2, [pc, #584]	@ (80015d4 <HAL_GPIO_Init+0x2b0>)
 800138c:	4293      	cmp	r3, r2
 800138e:	d046      	beq.n	800141e <HAL_GPIO_Init+0xfa>
 8001390:	4a90      	ldr	r2, [pc, #576]	@ (80015d4 <HAL_GPIO_Init+0x2b0>)
 8001392:	4293      	cmp	r3, r2
 8001394:	d85d      	bhi.n	8001452 <HAL_GPIO_Init+0x12e>
 8001396:	2b12      	cmp	r3, #18
 8001398:	d82a      	bhi.n	80013f0 <HAL_GPIO_Init+0xcc>
 800139a:	2b12      	cmp	r3, #18
 800139c:	d859      	bhi.n	8001452 <HAL_GPIO_Init+0x12e>
 800139e:	a201      	add	r2, pc, #4	@ (adr r2, 80013a4 <HAL_GPIO_Init+0x80>)
 80013a0:	f852 f023 	ldr.w	pc, [r2, r3, lsl #2]
 80013a4:	0800141f 	.word	0x0800141f
 80013a8:	080013f9 	.word	0x080013f9
 80013ac:	0800140b 	.word	0x0800140b
 80013b0:	0800144d 	.word	0x0800144d
 80013b4:	08001453 	.word	0x08001453
 80013b8:	08001453 	.word	0x08001453
 80013bc:	08001453 	.word	0x08001453
 80013c0:	08001453 	.word	0x08001453
 80013c4:	08001453 	.word	0x08001453
 80013c8:	08001453 	.word	0x08001453
 80013cc:	08001453 	.word	0x08001453
 80013d0:	08001453 	.word	0x08001453
 80013d4:	08001453 	.word	0x08001453
 80013d8:	08001453 	.word	0x08001453
 80013dc:	08001453 	.word	0x08001453
 80013e0:	08001453 	.word	0x08001453
 80013e4:	08001453 	.word	0x08001453
 80013e8:	08001401 	.word	0x08001401
 80013ec:	08001415 	.word	0x08001415
 80013f0:	4a79      	ldr	r2, [pc, #484]	@ (80015d8 <HAL_GPIO_Init+0x2b4>)
 80013f2:	4293      	cmp	r3, r2
 80013f4:	d013      	beq.n	800141e <HAL_GPIO_Init+0xfa>
 80013f6:	e02c      	b.n	8001452 <HAL_GPIO_Init+0x12e>
 80013f8:	683b      	ldr	r3, [r7, #0]
 80013fa:	68db      	ldr	r3, [r3, #12]
 80013fc:	623b      	str	r3, [r7, #32]
 80013fe:	e029      	b.n	8001454 <HAL_GPIO_Init+0x130>
 8001400:	683b      	ldr	r3, [r7, #0]
 8001402:	68db      	ldr	r3, [r3, #12]
 8001404:	3304      	adds	r3, #4
 8001406:	623b      	str	r3, [r7, #32]
 8001408:	e024      	b.n	8001454 <HAL_GPIO_Init+0x130>
 800140a:	683b      	ldr	r3, [r7, #0]
 800140c:	68db      	ldr	r3, [r3, #12]
 800140e:	3308      	adds	r3, #8
 8001410:	623b      	str	r3, [r7, #32]
 8001412:	e01f      	b.n	8001454 <HAL_GPIO_Init+0x130>
 8001414:	683b      	ldr	r3, [r7, #0]
 8001416:	68db      	ldr	r3, [r3, #12]
 8001418:	330c      	adds	r3, #12
 800141a:	623b      	str	r3, [r7, #32]
 800141c:	e01a      	b.n	8001454 <HAL_GPIO_Init+0x130>
 800141e:	683b      	ldr	r3, [r7, #0]
 8001420:	689b      	ldr	r3, [r3, #8]
 8001422:	2b00      	cmp	r3, #0
 8001424:	d102      	bne.n	800142c <HAL_GPIO_Init+0x108>
 8001426:	2304      	movs	r3, #4
 8001428:	623b      	str	r3, [r7, #32]
 800142a:	e013      	b.n	8001454 <HAL_GPIO_Init+0x130>
 800142c:	683b      	ldr	r3, [r7, #0]
 800142e:	689b      	ldr	r3, [r3, #8]
 8001430:	2b01      	cmp	r3, #1
 8001432:	d105      	bne.n	8001440 <HAL_GPIO_Init+0x11c>
 8001434:	2308      	movs	r3, #8
 8001436:	623b      	str	r3, [r7, #32]
 8001438:	687b      	ldr	r3, [r7, #4]
 800143a:	69fa      	ldr	r2, [r7, #28]
 800143c:	611a      	str	r2, [r3, #16]
 800143e:	e009      	b.n	8001454 <HAL_GPIO_Init+0x130>
 8001440:	2308      	movs	r3, #8
 8001442:	623b      	str	r3, [r7, #32]
 8001444:	687b      	ldr	r3, [r7, #4]
 8001446:	69fa      	ldr	r2, [r7, #28]
 8001448:	615a      	str	r2, [r3, #20]
 800144a:	e003      	b.n	8001454 <HAL_GPIO_Init+0x130>
 800144c:	2300      	movs	r3, #0
 800144e:	623b      	str	r3, [r7, #32]
 8001450:	e000      	b.n	8001454 <HAL_GPIO_Init+0x130>
 8001452:	bf00      	nop
 8001454:	69bb      	ldr	r3, [r7, #24]
 8001456:	2bff      	cmp	r3, #255	@ 0xff
 8001458:	d801      	bhi.n	800145e <HAL_GPIO_Init+0x13a>
 800145a:	687b      	ldr	r3, [r7, #4]
 800145c:	e001      	b.n	8001462 <HAL_GPIO_Init+0x13e>
 800145e:	687b      	ldr	r3, [r7, #4]
 8001460:	3304      	adds	r3, #4
 8001462:	617b      	str	r3, [r7, #20]
 8001464:	69bb      	ldr	r3, [r7, #24]
 8001466:	2bff      	cmp	r3, #255	@ 0xff
 8001468:	d802      	bhi.n	8001470 <HAL_GPIO_Init+0x14c>
 800146a:	6a7b      	ldr	r3, [r7, #36]	@ 0x24
 800146c:	009b      	lsls	r3, r3, #2
 800146e:	e002      	b.n	8001476 <HAL_GPIO_Init+0x152>
 8001470:	6a7b      	ldr	r3, [r7, #36]	@ 0x24
 8001472:	3b08      	subs	r3, #8
 8001474:	009b      	lsls	r3, r3, #2
 8001476:	613b      	str	r3, [r7, #16]
 8001478:	697b      	ldr	r3, [r7, #20]
 800147a:	681a      	ldr	r2, [r3, #0]
 800147c:	210f      	movs	r1, #15
 800147e:	693b      	ldr	r3, [r7, #16]
 8001480:	fa01 f303 	lsl.w	r3, r1, r3
 8001484:	43db      	mvns	r3, r3
 8001486:	401a      	ands	r2, r3
 8001488:	6a39      	ldr	r1, [r7, #32]
 800148a:	693b      	ldr	r3, [r7, #16]
 800148c:	fa01 f303 	lsl.w	r3, r1, r3
 8001490:	431a      	orrs	r2, r3
 8001492:	697b      	ldr	r3, [r7, #20]
 8001494:	601a      	str	r2, [r3, #0]
 8001496:	683b      	ldr	r3, [r7, #0]
 8001498:	685b      	ldr	r3, [r3, #4]
 800149a:	f003 5380 	and.w	r3, r3, #268435456	@ 0x10000000
 800149e:	2b00      	cmp	r3, #0
 80014a0:	f000 80b1 	beq.w	8001606 <HAL_GPIO_Init+0x2e2>
 80014a4:	4b4d      	ldr	r3, [pc, #308]	@ (80015dc <HAL_GPIO_Init+0x2b8>)
 80014a6:	699b      	ldr	r3, [r3, #24]
 80014a8:	4a4c      	ldr	r2, [pc, #304]	@ (80015dc <HAL_GPIO_Init+0x2b8>)
 80014aa:	f043 0301 	orr.w	r3, r3, #1
 80014ae:	6193      	str	r3, [r2, #24]
 80014b0:	4b4a      	ldr	r3, [pc, #296]	@ (80015dc <HAL_GPIO_Init+0x2b8>)
 80014b2:	699b      	ldr	r3, [r3, #24]
 80014b4:	f003 0301 	and.w	r3, r3, #1
 80014b8:	60bb      	str	r3, [r7, #8]
 80014ba:	68bb      	ldr	r3, [r7, #8]
 80014bc:	4a48      	ldr	r2, [pc, #288]	@ (80015e0 <HAL_GPIO_Init+0x2bc>)
 80014be:	6a7b      	ldr	r3, [r7, #36]	@ 0x24
 80014c0:	089b      	lsrs	r3, r3, #2
 80014c2:	3302      	adds	r3, #2
 80014c4:	f852 3023 	ldr.w	r3, [r2, r3, lsl #2]
 80014c8:	60fb      	str	r3, [r7, #12]
 80014ca:	6a7b      	ldr	r3, [r7, #36]	@ 0x24
 80014cc:	f003 0303 	and.w	r3, r3, #3
 80014d0:	009b      	lsls	r3, r3, #2
 80014d2:	220f      	movs	r2, #15
 80014d4:	fa02 f303 	lsl.w	r3, r2, r3
 80014d8:	43db      	mvns	r3, r3
 80014da:	68fa      	ldr	r2, [r7, #12]
 80014dc:	4013      	ands	r3, r2
 80014de:	60fb      	str	r3, [r7, #12]
 80014e0:	687b      	ldr	r3, [r7, #4]
 80014e2:	4a40      	ldr	r2, [pc, #256]	@ (80015e4 <HAL_GPIO_Init+0x2c0>)
 80014e4:	4293      	cmp	r3, r2
 80014e6:	d013      	beq.n	8001510 <HAL_GPIO_Init+0x1ec>
 80014e8:	687b      	ldr	r3, [r7, #4]
 80014ea:	4a3f      	ldr	r2, [pc, #252]	@ (80015e8 <HAL_GPIO_Init+0x2c4>)
 80014ec:	4293      	cmp	r3, r2
 80014ee:	d00d      	beq.n	800150c <HAL_GPIO_Init+0x1e8>
 80014f0:	687b      	ldr	r3, [r7, #4]
 80014f2:	4a3e      	ldr	r2, [pc, #248]	@ (80015ec <HAL_GPIO_Init+0x2c8>)
 80014f4:	4293      	cmp	r3, r2
 80014f6:	d007      	beq.n	8001508 <HAL_GPIO_Init+0x1e4>
 80014f8:	687b      	ldr	r3, [r7, #4]
 80014fa:	4a3d      	ldr	r2, [pc, #244]	@ (80015f0 <HAL_GPIO_Init+0x2cc>)
 80014fc:	4293      	cmp	r3, r2
 80014fe:	d101      	bne.n	8001504 <HAL_GPIO_Init+0x1e0>
 8001500:	2303      	movs	r3, #3
 8001502:	e006      	b.n	8001512 <HAL_GPIO_Init+0x1ee>
 8001504:	2304      	movs	r3, #4
 8001506:	e004      	b.n	8001512 <HAL_GPIO_Init+0x1ee>
 8001508:	2302      	movs	r3, #2
 800150a:	e002      	b.n	8001512 <HAL_GPIO_Init+0x1ee>
 800150c:	2301      	movs	r3, #1
 800150e:	e000      	b.n	8001512 <HAL_GPIO_Init+0x1ee>
 8001510:	2300      	movs	r3, #0
 8001512:	6a7a      	ldr	r2, [r7, #36]	@ 0x24
 8001514:	f002 0203 	and.w	r2, r2, #3
 8001518:	0092      	lsls	r2, r2, #2
 800151a:	4093      	lsls	r3, r2
 800151c:	68fa      	ldr	r2, [r7, #12]
 800151e:	4313      	orrs	r3, r2
 8001520:	60fb      	str	r3, [r7, #12]
 8001522:	492f      	ldr	r1, [pc, #188]	@ (80015e0 <HAL_GPIO_Init+0x2bc>)
 8001524:	6a7b      	ldr	r3, [r7, #36]	@ 0x24
 8001526:	089b      	lsrs	r3, r3, #2
 8001528:	3302      	adds	r3, #2
 800152a:	68fa      	ldr	r2, [r7, #12]
 800152c:	f841 2023 	str.w	r2, [r1, r3, lsl #2]
 8001530:	683b      	ldr	r3, [r7, #0]
 8001532:	685b      	ldr	r3, [r3, #4]
 8001534:	f403 1380 	and.w	r3, r3, #1048576	@ 0x100000
 8001538:	2b00      	cmp	r3, #0
 800153a:	d006      	beq.n	800154a <HAL_GPIO_Init+0x226>
 800153c:	4b2d      	ldr	r3, [pc, #180]	@ (80015f4 <HAL_GPIO_Init+0x2d0>)
 800153e:	689a      	ldr	r2, [r3, #8]
 8001540:	492c      	ldr	r1, [pc, #176]	@ (80015f4 <HAL_GPIO_Init+0x2d0>)
 8001542:	69bb      	ldr	r3, [r7, #24]
 8001544:	4313      	orrs	r3, r2
 8001546:	608b      	str	r3, [r1, #8]
 8001548:	e006      	b.n	8001558 <HAL_GPIO_Init+0x234>
 800154a:	4b2a      	ldr	r3, [pc, #168]	@ (80015f4 <HAL_GPIO_Init+0x2d0>)
 800154c:	689a      	ldr	r2, [r3, #8]
 800154e:	69bb      	ldr	r3, [r7, #24]
 8001550:	43db      	mvns	r3, r3
 8001552:	4928      	ldr	r1, [pc, #160]	@ (80015f4 <HAL_GPIO_Init+0x2d0>)
 8001554:	4013      	ands	r3, r2
 8001556:	608b      	str	r3, [r1, #8]
 8001558:	683b      	ldr	r3, [r7, #0]
 800155a:	685b      	ldr	r3, [r3, #4]
 800155c:	f403 1300 	and.w	r3, r3, #2097152	@ 0x200000
 8001560:	2b00      	cmp	r3, #0
 8001562:	d006      	beq.n	8001572 <HAL_GPIO_Init+0x24e>
 8001564:	4b23      	ldr	r3, [pc, #140]	@ (80015f4 <HAL_GPIO_Init+0x2d0>)
 8001566:	68da      	ldr	r2, [r3, #12]
 8001568:	4922      	ldr	r1, [pc, #136]	@ (80015f4 <HAL_GPIO_Init+0x2d0>)
 800156a:	69bb      	ldr	r3, [r7, #24]
 800156c:	4313      	orrs	r3, r2
 800156e:	60cb      	str	r3, [r1, #12]
 8001570:	e006      	b.n	8001580 <HAL_GPIO_Init+0x25c>
 8001572:	4b20      	ldr	r3, [pc, #128]	@ (80015f4 <HAL_GPIO_Init+0x2d0>)
 8001574:	68da      	ldr	r2, [r3, #12]
 8001576:	69bb      	ldr	r3, [r7, #24]
 8001578:	43db      	mvns	r3, r3
 800157a:	491e      	ldr	r1, [pc, #120]	@ (80015f4 <HAL_GPIO_Init+0x2d0>)
 800157c:	4013      	ands	r3, r2
 800157e:	60cb      	str	r3, [r1, #12]
 8001580:	683b      	ldr	r3, [r7, #0]
 8001582:	685b      	ldr	r3, [r3, #4]
 8001584:	f403 3300 	and.w	r3, r3, #131072	@ 0x20000
 8001588:	2b00      	cmp	r3, #0
 800158a:	d006      	beq.n	800159a <HAL_GPIO_Init+0x276>
 800158c:	4b19      	ldr	r3, [pc, #100]	@ (80015f4 <HAL_GPIO_Init+0x2d0>)
 800158e:	685a      	ldr	r2, [r3, #4]
 8001590:	4918      	ldr	r1, [pc, #96]	@ (80015f4 <HAL_GPIO_Init+0x2d0>)
 8001592:	69bb      	ldr	r3, [r7, #24]
 8001594:	4313      	orrs	r3, r2
 8001596:	604b      	str	r3, [r1, #4]
 8001598:	e006      	b.n	80015a8 <HAL_GPIO_Init+0x284>
 800159a:	4b16      	ldr	r3, [pc, #88]	@ (80015f4 <HAL_GPIO_Init+0x2d0>)
 800159c:	685a      	ldr	r2, [r3, #4]
 800159e:	69bb      	ldr	r3, [r7, #24]
 80015a0:	43db      	mvns	r3, r3
 80015a2:	4914      	ldr	r1, [pc, #80]	@ (80015f4 <HAL_GPIO_Init+0x2d0>)
 80015a4:	4013      	ands	r3, r2
 80015a6:	604b      	str	r3, [r1, #4]
 80015a8:	683b      	ldr	r3, [r7, #0]
 80015aa:	685b      	ldr	r3, [r3, #4]
 80015ac:	f403 3380 	and.w	r3, r3, #65536	@ 0x10000
 80015b0:	2b00      	cmp	r3, #0
 80015b2:	d021      	beq.n	80015f8 <HAL_GPIO_Init+0x2d4>
 80015b4:	4b0f      	ldr	r3, [pc, #60]	@ (80015f4 <HAL_GPIO_Init+0x2d0>)
 80015b6:	681a      	ldr	r2, [r3, #0]
 80015b8:	490e      	ldr	r1, [pc, #56]	@ (80015f4 <HAL_GPIO_Init+0x2d0>)
 80015ba:	69bb      	ldr	r3, [r7, #24]
 80015bc:	4313      	orrs	r3, r2
 80015be:	600b      	str	r3, [r1, #0]
 80015c0:	e021      	b.n	8001606 <HAL_GPIO_Init+0x2e2>
 80015c2:	bf00      	nop
 80015c4:	10320000 	.word	0x10320000
 80015c8:	10310000 	.word	0x10310000
 80015cc:	10220000 	.word	0x10220000
 80015d0:	10210000 	.word	0x10210000
 80015d4:	10120000 	.word	0x10120000
 80015d8:	10110000 	.word	0x10110000
 80015dc:	40021000 	.word	0x40021000
 80015e0:	40010000 	.word	0x40010000
 80015e4:	40010800 	.word	0x40010800
 80015e8:	40010c00 	.word	0x40010c00
 80015ec:	40011000 	.word	0x40011000
 80015f0:	40011400 	.word	0x40011400
 80015f4:	40010400 	.word	0x40010400
 80015f8:	4b0b      	ldr	r3, [pc, #44]	@ (8001628 <HAL_GPIO_Init+0x304>)
 80015fa:	681a      	ldr	r2, [r3, #0]
 80015fc:	69bb      	ldr	r3, [r7, #24]
 80015fe:	43db      	mvns	r3, r3
 8001600:	4909      	ldr	r1, [pc, #36]	@ (8001628 <HAL_GPIO_Init+0x304>)
 8001602:	4013      	ands	r3, r2
 8001604:	600b      	str	r3, [r1, #0]
 8001606:	6a7b      	ldr	r3, [r7, #36]	@ 0x24
 8001608:	3301      	adds	r3, #1
 800160a:	627b      	str	r3, [r7, #36]	@ 0x24
 800160c:	683b      	ldr	r3, [r7, #0]
 800160e:	681a      	ldr	r2, [r3, #0]
 8001610:	6a7b      	ldr	r3, [r7, #36]	@ 0x24
 8001612:	fa22 f303 	lsr.w	r3, r2, r3
 8001616:	2b00      	cmp	r3, #0
 8001618:	f47f ae8e 	bne.w	8001338 <HAL_GPIO_Init+0x14>
 800161c:	bf00      	nop
 800161e:	bf00      	nop
 8001620:	372c      	adds	r7, #44	@ 0x2c
 8001622:	46bd      	mov	sp, r7
 8001624:	bc80      	pop	{r7}
 8001626:	4770      	bx	lr
 8001628:	40010400 	.word	0x40010400

0800162c <HAL_GPIO_ReadPin>:
 800162c:	b480      	push	{r7}
 800162e:	b085      	sub	sp, #20
 8001630:	af00      	add	r7, sp, #0
 8001632:	6078      	str	r0, [r7, #4]
 8001634:	460b      	mov	r3, r1
 8001636:	807b      	strh	r3, [r7, #2]
 8001638:	687b      	ldr	r3, [r7, #4]
 800163a:	689a      	ldr	r2, [r3, #8]
 800163c:	887b      	ldrh	r3, [r7, #2]
 800163e:	4013      	ands	r3, r2
 8001640:	2b00      	cmp	r3, #0
 8001642:	d002      	beq.n	800164a <HAL_GPIO_ReadPin+0x1e>
 8001644:	2301      	movs	r3, #1
 8001646:	73fb      	strb	r3, [r7, #15]
 8001648:	e001      	b.n	800164e <HAL_GPIO_ReadPin+0x22>
 800164a:	2300      	movs	r3, #0
 800164c:	73fb      	strb	r3, [r7, #15]
 800164e:	7bfb      	ldrb	r3, [r7, #15]
 8001650:	4618      	mov	r0, r3
 8001652:	3714      	adds	r7, #20
 8001654:	46bd      	mov	sp, r7
 8001656:	bc80      	pop	{r7}
 8001658:	4770      	bx	lr

0800165a <HAL_GPIO_WritePin>:
 800165a:	b480      	push	{r7}
 800165c:	b083      	sub	sp, #12
 800165e:	af00      	add	r7, sp, #0
 8001660:	6078      	str	r0, [r7, #4]
 8001662:	460b      	mov	r3, r1
 8001664:	807b      	strh	r3, [r7, #2]
 8001666:	4613      	mov	r3, r2
 8001668:	707b      	strb	r3, [r7, #1]
 800166a:	787b      	ldrb	r3, [r7, #1]
 800166c:	2b00      	cmp	r3, #0
 800166e:	d003      	beq.n	8001678 <HAL_GPIO_WritePin+0x1e>
 8001670:	887a      	ldrh	r2, [r7, #2]
 8001672:	687b      	ldr	r3, [r7, #4]
 8001674:	611a      	str	r2, [r3, #16]
 8001676:	e003      	b.n	8001680 <HAL_GPIO_WritePin+0x26>
 8001678:	887b      	ldrh	r3, [r7, #2]
 800167a:	041a      	lsls	r2, r3, #16
 800167c:	687b      	ldr	r3, [r7, #4]
 800167e:	611a      	str	r2, [r3, #16]
 8001680:	bf00      	nop
 8001682:	370c      	adds	r7, #12
 8001684:	46bd      	mov	sp, r7
 8001686:	bc80      	pop	{r7}
 8001688:	4770      	bx	lr
	...

0800168c <HAL_RCC_OscConfig>:
 800168c:	b580      	push	{r7, lr}
 800168e:	b086      	sub	sp, #24
 8001690:	af00      	add	r7, sp, #0
 8001692:	6078      	str	r0, [r7, #4]
 8001694:	687b      	ldr	r3, [r7, #4]
 8001696:	2b00      	cmp	r3, #0
 8001698:	d101      	bne.n	800169e <HAL_RCC_OscConfig+0x12>
 800169a:	2301      	movs	r3, #1
 800169c:	e272      	b.n	8001b84 <HAL_RCC_OscConfig+0x4f8>
 800169e:	687b      	ldr	r3, [r7, #4]
 80016a0:	681b      	ldr	r3, [r3, #0]
 80016a2:	f003 0301 	and.w	r3, r3, #1
 80016a6:	2b00      	cmp	r3, #0
 80016a8:	f000 8087 	beq.w	80017ba <HAL_RCC_OscConfig+0x12e>
 80016ac:	4b92      	ldr	r3, [pc, #584]	@ (80018f8 <HAL_RCC_OscConfig+0x26c>)
 80016ae:	685b      	ldr	r3, [r3, #4]
 80016b0:	f003 030c 	and.w	r3, r3, #12
 80016b4:	2b04      	cmp	r3, #4
 80016b6:	d00c      	beq.n	80016d2 <HAL_RCC_OscConfig+0x46>
 80016b8:	4b8f      	ldr	r3, [pc, #572]	@ (80018f8 <HAL_RCC_OscConfig+0x26c>)
 80016ba:	685b      	ldr	r3, [r3, #4]
 80016bc:	f003 030c 	and.w	r3, r3, #12
 80016c0:	2b08      	cmp	r3, #8
 80016c2:	d112      	bne.n	80016ea <HAL_RCC_OscConfig+0x5e>
 80016c4:	4b8c      	ldr	r3, [pc, #560]	@ (80018f8 <HAL_RCC_OscConfig+0x26c>)
 80016c6:	685b      	ldr	r3, [r3, #4]
 80016c8:	f403 3380 	and.w	r3, r3, #65536	@ 0x10000
 80016cc:	f5b3 3f80 	cmp.w	r3, #65536	@ 0x10000
 80016d0:	d10b      	bne.n	80016ea <HAL_RCC_OscConfig+0x5e>
 80016d2:	4b89      	ldr	r3, [pc, #548]	@ (80018f8 <HAL_RCC_OscConfig+0x26c>)
 80016d4:	681b      	ldr	r3, [r3, #0]
 80016d6:	f403 3300 	and.w	r3, r3, #131072	@ 0x20000
 80016da:	2b00      	cmp	r3, #0
 80016dc:	d06c      	beq.n	80017b8 <HAL_RCC_OscConfig+0x12c>
 80016de:	687b      	ldr	r3, [r7, #4]
 80016e0:	685b      	ldr	r3, [r3, #4]
 80016e2:	2b00      	cmp	r3, #0
 80016e4:	d168      	bne.n	80017b8 <HAL_RCC_OscConfig+0x12c>
 80016e6:	2301      	movs	r3, #1
 80016e8:	e24c      	b.n	8001b84 <HAL_RCC_OscConfig+0x4f8>
 80016ea:	687b      	ldr	r3, [r7, #4]
 80016ec:	685b      	ldr	r3, [r3, #4]
 80016ee:	f5b3 3f80 	cmp.w	r3, #65536	@ 0x10000
 80016f2:	d106      	bne.n	8001702 <HAL_RCC_OscConfig+0x76>
 80016f4:	4b80      	ldr	r3, [pc, #512]	@ (80018f8 <HAL_RCC_OscConfig+0x26c>)
 80016f6:	681b      	ldr	r3, [r3, #0]
 80016f8:	4a7f      	ldr	r2, [pc, #508]	@ (80018f8 <HAL_RCC_OscConfig+0x26c>)
 80016fa:	f443 3380 	orr.w	r3, r3, #65536	@ 0x10000
 80016fe:	6013      	str	r3, [r2, #0]
 8001700:	e02e      	b.n	8001760 <HAL_RCC_OscConfig+0xd4>
 8001702:	687b      	ldr	r3, [r7, #4]
 8001704:	685b      	ldr	r3, [r3, #4]
 8001706:	2b00      	cmp	r3, #0
 8001708:	d10c      	bne.n	8001724 <HAL_RCC_OscConfig+0x98>
 800170a:	4b7b      	ldr	r3, [pc, #492]	@ (80018f8 <HAL_RCC_OscConfig+0x26c>)
 800170c:	681b      	ldr	r3, [r3, #0]
 800170e:	4a7a      	ldr	r2, [pc, #488]	@ (80018f8 <HAL_RCC_OscConfig+0x26c>)
 8001710:	f423 3380 	bic.w	r3, r3, #65536	@ 0x10000
 8001714:	6013      	str	r3, [r2, #0]
 8001716:	4b78      	ldr	r3, [pc, #480]	@ (80018f8 <HAL_RCC_OscConfig+0x26c>)
 8001718:	681b      	ldr	r3, [r3, #0]
 800171a:	4a77      	ldr	r2, [pc, #476]	@ (80018f8 <HAL_RCC_OscConfig+0x26c>)
 800171c:	f423 2380 	bic.w	r3, r3, #262144	@ 0x40000
 8001720:	6013      	str	r3, [r2, #0]
 8001722:	e01d      	b.n	8001760 <HAL_RCC_OscConfig+0xd4>
 8001724:	687b      	ldr	r3, [r7, #4]
 8001726:	685b      	ldr	r3, [r3, #4]
 8001728:	f5b3 2fa0 	cmp.w	r3, #327680	@ 0x50000
 800172c:	d10c      	bne.n	8001748 <HAL_RCC_OscConfig+0xbc>
 800172e:	4b72      	ldr	r3, [pc, #456]	@ (80018f8 <HAL_RCC_OscConfig+0x26c>)
 8001730:	681b      	ldr	r3, [r3, #0]
 8001732:	4a71      	ldr	r2, [pc, #452]	@ (80018f8 <HAL_RCC_OscConfig+0x26c>)
 8001734:	f443 2380 	orr.w	r3, r3, #262144	@ 0x40000
 8001738:	6013      	str	r3, [r2, #0]
 800173a:	4b6f      	ldr	r3, [pc, #444]	@ (80018f8 <HAL_RCC_OscConfig+0x26c>)
 800173c:	681b      	ldr	r3, [r3, #0]
 800173e:	4a6e      	ldr	r2, [pc, #440]	@ (80018f8 <HAL_RCC_OscConfig+0x26c>)
 8001740:	f443 3380 	orr.w	r3, r3, #65536	@ 0x10000
 8001744:	6013      	str	r3, [r2, #0]
 8001746:	e00b      	b.n	8001760 <HAL_RCC_OscConfig+0xd4>
 8001748:	4b6b      	ldr	r3, [pc, #428]	@ (80018f8 <HAL_RCC_OscConfig+0x26c>)
 800174a:	681b      	ldr	r3, [r3, #0]
 800174c:	4a6a      	ldr	r2, [pc, #424]	@ (80018f8 <HAL_RCC_OscConfig+0x26c>)
 800174e:	f423 3380 	bic.w	r3, r3, #65536	@ 0x10000
 8001752:	6013      	str	r3, [r2, #0]
 8001754:	4b68      	ldr	r3, [pc, #416]	@ (80018f8 <HAL_RCC_OscConfig+0x26c>)
 8001756:	681b      	ldr	r3, [r3, #0]
 8001758:	4a67      	ldr	r2, [pc, #412]	@ (80018f8 <HAL_RCC_OscConfig+0x26c>)
 800175a:	f423 2380 	bic.w	r3, r3, #262144	@ 0x40000
 800175e:	6013      	str	r3, [r2, #0]
 8001760:	687b      	ldr	r3, [r7, #4]
 8001762:	685b      	ldr	r3, [r3, #4]
 8001764:	2b00      	cmp	r3, #0
 8001766:	d013      	beq.n	8001790 <HAL_RCC_OscConfig+0x104>
 8001768:	f7ff fcc4 	bl	80010f4 <HAL_GetTick>
 800176c:	6138      	str	r0, [r7, #16]
 800176e:	e008      	b.n	8001782 <HAL_RCC_OscConfig+0xf6>
 8001770:	f7ff fcc0 	bl	80010f4 <HAL_GetTick>
 8001774:	4602      	mov	r2, r0
 8001776:	693b      	ldr	r3, [r7, #16]
 8001778:	1ad3      	subs	r3, r2, r3
 800177a:	2b64      	cmp	r3, #100	@ 0x64
 800177c:	d901      	bls.n	8001782 <HAL_RCC_OscConfig+0xf6>
 800177e:	2303      	movs	r3, #3
 8001780:	e200      	b.n	8001b84 <HAL_RCC_OscConfig+0x4f8>
 8001782:	4b5d      	ldr	r3, [pc, #372]	@ (80018f8 <HAL_RCC_OscConfig+0x26c>)
 8001784:	681b      	ldr	r3, [r3, #0]
 8001786:	f403 3300 	and.w	r3, r3, #131072	@ 0x20000
 800178a:	2b00      	cmp	r3, #0
 800178c:	d0f0      	beq.n	8001770 <HAL_RCC_OscConfig+0xe4>
 800178e:	e014      	b.n	80017ba <HAL_RCC_OscConfig+0x12e>
 8001790:	f7ff fcb0 	bl	80010f4 <HAL_GetTick>
 8001794:	6138      	str	r0, [r7, #16]
 8001796:	e008      	b.n	80017aa <HAL_RCC_OscConfig+0x11e>
 8001798:	f7ff fcac 	bl	80010f4 <HAL_GetTick>
 800179c:	4602      	mov	r2, r0
 800179e:	693b      	ldr	r3, [r7, #16]
 80017a0:	1ad3      	subs	r3, r2, r3
 80017a2:	2b64      	cmp	r3, #100	@ 0x64
 80017a4:	d901      	bls.n	80017aa <HAL_RCC_OscConfig+0x11e>
 80017a6:	2303      	movs	r3, #3
 80017a8:	e1ec      	b.n	8001b84 <HAL_RCC_OscConfig+0x4f8>
 80017aa:	4b53      	ldr	r3, [pc, #332]	@ (80018f8 <HAL_RCC_OscConfig+0x26c>)
 80017ac:	681b      	ldr	r3, [r3, #0]
 80017ae:	f403 3300 	and.w	r3, r3, #131072	@ 0x20000
 80017b2:	2b00      	cmp	r3, #0
 80017b4:	d1f0      	bne.n	8001798 <HAL_RCC_OscConfig+0x10c>
 80017b6:	e000      	b.n	80017ba <HAL_RCC_OscConfig+0x12e>
 80017b8:	bf00      	nop
 80017ba:	687b      	ldr	r3, [r7, #4]
 80017bc:	681b      	ldr	r3, [r3, #0]
 80017be:	f003 0302 	and.w	r3, r3, #2
 80017c2:	2b00      	cmp	r3, #0
 80017c4:	d063      	beq.n	800188e <HAL_RCC_OscConfig+0x202>
 80017c6:	4b4c      	ldr	r3, [pc, #304]	@ (80018f8 <HAL_RCC_OscConfig+0x26c>)
 80017c8:	685b      	ldr	r3, [r3, #4]
 80017ca:	f003 030c 	and.w	r3, r3, #12
 80017ce:	2b00      	cmp	r3, #0
 80017d0:	d00b      	beq.n	80017ea <HAL_RCC_OscConfig+0x15e>
 80017d2:	4b49      	ldr	r3, [pc, #292]	@ (80018f8 <HAL_RCC_OscConfig+0x26c>)
 80017d4:	685b      	ldr	r3, [r3, #4]
 80017d6:	f003 030c 	and.w	r3, r3, #12
 80017da:	2b08      	cmp	r3, #8
 80017dc:	d11c      	bne.n	8001818 <HAL_RCC_OscConfig+0x18c>
 80017de:	4b46      	ldr	r3, [pc, #280]	@ (80018f8 <HAL_RCC_OscConfig+0x26c>)
 80017e0:	685b      	ldr	r3, [r3, #4]
 80017e2:	f403 3380 	and.w	r3, r3, #65536	@ 0x10000
 80017e6:	2b00      	cmp	r3, #0
 80017e8:	d116      	bne.n	8001818 <HAL_RCC_OscConfig+0x18c>
 80017ea:	4b43      	ldr	r3, [pc, #268]	@ (80018f8 <HAL_RCC_OscConfig+0x26c>)
 80017ec:	681b      	ldr	r3, [r3, #0]
 80017ee:	f003 0302 	and.w	r3, r3, #2
 80017f2:	2b00      	cmp	r3, #0
 80017f4:	d005      	beq.n	8001802 <HAL_RCC_OscConfig+0x176>
 80017f6:	687b      	ldr	r3, [r7, #4]
 80017f8:	691b      	ldr	r3, [r3, #16]
 80017fa:	2b01      	cmp	r3, #1
 80017fc:	d001      	beq.n	8001802 <HAL_RCC_OscConfig+0x176>
 80017fe:	2301      	movs	r3, #1
 8001800:	e1c0      	b.n	8001b84 <HAL_RCC_OscConfig+0x4f8>
 8001802:	4b3d      	ldr	r3, [pc, #244]	@ (80018f8 <HAL_RCC_OscConfig+0x26c>)
 8001804:	681b      	ldr	r3, [r3, #0]
 8001806:	f023 02f8 	bic.w	r2, r3, #248	@ 0xf8
 800180a:	687b      	ldr	r3, [r7, #4]
 800180c:	695b      	ldr	r3, [r3, #20]
 800180e:	00db      	lsls	r3, r3, #3
 8001810:	4939      	ldr	r1, [pc, #228]	@ (80018f8 <HAL_RCC_OscConfig+0x26c>)
 8001812:	4313      	orrs	r3, r2
 8001814:	600b      	str	r3, [r1, #0]
 8001816:	e03a      	b.n	800188e <HAL_RCC_OscConfig+0x202>
 8001818:	687b      	ldr	r3, [r7, #4]
 800181a:	691b      	ldr	r3, [r3, #16]
 800181c:	2b00      	cmp	r3, #0
 800181e:	d020      	beq.n	8001862 <HAL_RCC_OscConfig+0x1d6>
 8001820:	4b36      	ldr	r3, [pc, #216]	@ (80018fc <HAL_RCC_OscConfig+0x270>)
 8001822:	2201      	movs	r2, #1
 8001824:	601a      	str	r2, [r3, #0]
 8001826:	f7ff fc65 	bl	80010f4 <HAL_GetTick>
 800182a:	6138      	str	r0, [r7, #16]
 800182c:	e008      	b.n	8001840 <HAL_RCC_OscConfig+0x1b4>
 800182e:	f7ff fc61 	bl	80010f4 <HAL_GetTick>
 8001832:	4602      	mov	r2, r0
 8001834:	693b      	ldr	r3, [r7, #16]
 8001836:	1ad3      	subs	r3, r2, r3
 8001838:	2b02      	cmp	r3, #2
 800183a:	d901      	bls.n	8001840 <HAL_RCC_OscConfig+0x1b4>
 800183c:	2303      	movs	r3, #3
 800183e:	e1a1      	b.n	8001b84 <HAL_RCC_OscConfig+0x4f8>
 8001840:	4b2d      	ldr	r3, [pc, #180]	@ (80018f8 <HAL_RCC_OscConfig+0x26c>)
 8001842:	681b      	ldr	r3, [r3, #0]
 8001844:	f003 0302 	and.w	r3, r3, #2
 8001848:	2b00      	cmp	r3, #0
 800184a:	d0f0      	beq.n	800182e <HAL_RCC_OscConfig+0x1a2>
 800184c:	4b2a      	ldr	r3, [pc, #168]	@ (80018f8 <HAL_RCC_OscConfig+0x26c>)
 800184e:	681b      	ldr	r3, [r3, #0]
 8001850:	f023 02f8 	bic.w	r2, r3, #248	@ 0xf8
 8001854:	687b      	ldr	r3, [r7, #4]
 8001856:	695b      	ldr	r3, [r3, #20]
 8001858:	00db      	lsls	r3, r3, #3
 800185a:	4927      	ldr	r1, [pc, #156]	@ (80018f8 <HAL_RCC_OscConfig+0x26c>)
 800185c:	4313      	orrs	r3, r2
 800185e:	600b      	str	r3, [r1, #0]
 8001860:	e015      	b.n	800188e <HAL_RCC_OscConfig+0x202>
 8001862:	4b26      	ldr	r3, [pc, #152]	@ (80018fc <HAL_RCC_OscConfig+0x270>)
 8001864:	2200      	movs	r2, #0
 8001866:	601a      	str	r2, [r3, #0]
 8001868:	f7ff fc44 	bl	80010f4 <HAL_GetTick>
 800186c:	6138      	str	r0, [r7, #16]
 800186e:	e008      	b.n	8001882 <HAL_RCC_OscConfig+0x1f6>
 8001870:	f7ff fc40 	bl	80010f4 <HAL_GetTick>
 8001874:	4602      	mov	r2, r0
 8001876:	693b      	ldr	r3, [r7, #16]
 8001878:	1ad3      	subs	r3, r2, r3
 800187a:	2b02      	cmp	r3, #2
 800187c:	d901      	bls.n	8001882 <HAL_RCC_OscConfig+0x1f6>
 800187e:	2303      	movs	r3, #3
 8001880:	e180      	b.n	8001b84 <HAL_RCC_OscConfig+0x4f8>
 8001882:	4b1d      	ldr	r3, [pc, #116]	@ (80018f8 <HAL_RCC_OscConfig+0x26c>)
 8001884:	681b      	ldr	r3, [r3, #0]
 8001886:	f003 0302 	and.w	r3, r3, #2
 800188a:	2b00      	cmp	r3, #0
 800188c:	d1f0      	bne.n	8001870 <HAL_RCC_OscConfig+0x1e4>
 800188e:	687b      	ldr	r3, [r7, #4]
 8001890:	681b      	ldr	r3, [r3, #0]
 8001892:	f003 0308 	and.w	r3, r3, #8
 8001896:	2b00      	cmp	r3, #0
 8001898:	d03a      	beq.n	8001910 <HAL_RCC_OscConfig+0x284>
 800189a:	687b      	ldr	r3, [r7, #4]
 800189c:	699b      	ldr	r3, [r3, #24]
 800189e:	2b00      	cmp	r3, #0
 80018a0:	d019      	beq.n	80018d6 <HAL_RCC_OscConfig+0x24a>
 80018a2:	4b17      	ldr	r3, [pc, #92]	@ (8001900 <HAL_RCC_OscConfig+0x274>)
 80018a4:	2201      	movs	r2, #1
 80018a6:	601a      	str	r2, [r3, #0]
 80018a8:	f7ff fc24 	bl	80010f4 <HAL_GetTick>
 80018ac:	6138      	str	r0, [r7, #16]
 80018ae:	e008      	b.n	80018c2 <HAL_RCC_OscConfig+0x236>
 80018b0:	f7ff fc20 	bl	80010f4 <HAL_GetTick>
 80018b4:	4602      	mov	r2, r0
 80018b6:	693b      	ldr	r3, [r7, #16]
 80018b8:	1ad3      	subs	r3, r2, r3
 80018ba:	2b02      	cmp	r3, #2
 80018bc:	d901      	bls.n	80018c2 <HAL_RCC_OscConfig+0x236>
 80018be:	2303      	movs	r3, #3
 80018c0:	e160      	b.n	8001b84 <HAL_RCC_OscConfig+0x4f8>
 80018c2:	4b0d      	ldr	r3, [pc, #52]	@ (80018f8 <HAL_RCC_OscConfig+0x26c>)
 80018c4:	6a5b      	ldr	r3, [r3, #36]	@ 0x24
 80018c6:	f003 0302 	and.w	r3, r3, #2
 80018ca:	2b00      	cmp	r3, #0
 80018cc:	d0f0      	beq.n	80018b0 <HAL_RCC_OscConfig+0x224>
 80018ce:	2001      	movs	r0, #1
 80018d0:	f000 fa9c 	bl	8001e0c <RCC_Delay>
 80018d4:	e01c      	b.n	8001910 <HAL_RCC_OscConfig+0x284>
 80018d6:	4b0a      	ldr	r3, [pc, #40]	@ (8001900 <HAL_RCC_OscConfig+0x274>)
 80018d8:	2200      	movs	r2, #0
 80018da:	601a      	str	r2, [r3, #0]
 80018dc:	f7ff fc0a 	bl	80010f4 <HAL_GetTick>
 80018e0:	6138      	str	r0, [r7, #16]
 80018e2:	e00f      	b.n	8001904 <HAL_RCC_OscConfig+0x278>
 80018e4:	f7ff fc06 	bl	80010f4 <HAL_GetTick>
 80018e8:	4602      	mov	r2, r0
 80018ea:	693b      	ldr	r3, [r7, #16]
 80018ec:	1ad3      	subs	r3, r2, r3
 80018ee:	2b02      	cmp	r3, #2
 80018f0:	d908      	bls.n	8001904 <HAL_RCC_OscConfig+0x278>
 80018f2:	2303      	movs	r3, #3
 80018f4:	e146      	b.n	8001b84 <HAL_RCC_OscConfig+0x4f8>
 80018f6:	bf00      	nop
 80018f8:	40021000 	.word	0x40021000
 80018fc:	42420000 	.word	0x42420000
 8001900:	42420480 	.word	0x42420480
 8001904:	4b92      	ldr	r3, [pc, #584]	@ (8001b50 <HAL_RCC_OscConfig+0x4c4>)
 8001906:	6a5b      	ldr	r3, [r3, #36]	@ 0x24
 8001908:	f003 0302 	and.w	r3, r3, #2
 800190c:	2b00      	cmp	r3, #0
 800190e:	d1e9      	bne.n	80018e4 <HAL_RCC_OscConfig+0x258>
 8001910:	687b      	ldr	r3, [r7, #4]
 8001912:	681b      	ldr	r3, [r3, #0]
 8001914:	f003 0304 	and.w	r3, r3, #4
 8001918:	2b00      	cmp	r3, #0
 800191a:	f000 80a6 	beq.w	8001a6a <HAL_RCC_OscConfig+0x3de>
 800191e:	2300      	movs	r3, #0
 8001920:	75fb      	strb	r3, [r7, #23]
 8001922:	4b8b      	ldr	r3, [pc, #556]	@ (8001b50 <HAL_RCC_OscConfig+0x4c4>)
 8001924:	69db      	ldr	r3, [r3, #28]
 8001926:	f003 5380 	and.w	r3, r3, #268435456	@ 0x10000000
 800192a:	2b00      	cmp	r3, #0
 800192c:	d10d      	bne.n	800194a <HAL_RCC_OscConfig+0x2be>
 800192e:	4b88      	ldr	r3, [pc, #544]	@ (8001b50 <HAL_RCC_OscConfig+0x4c4>)
 8001930:	69db      	ldr	r3, [r3, #28]
 8001932:	4a87      	ldr	r2, [pc, #540]	@ (8001b50 <HAL_RCC_OscConfig+0x4c4>)
 8001934:	f043 5380 	orr.w	r3, r3, #268435456	@ 0x10000000
 8001938:	61d3      	str	r3, [r2, #28]
 800193a:	4b85      	ldr	r3, [pc, #532]	@ (8001b50 <HAL_RCC_OscConfig+0x4c4>)
 800193c:	69db      	ldr	r3, [r3, #28]
 800193e:	f003 5380 	and.w	r3, r3, #268435456	@ 0x10000000
 8001942:	60bb      	str	r3, [r7, #8]
 8001944:	68bb      	ldr	r3, [r7, #8]
 8001946:	2301      	movs	r3, #1
 8001948:	75fb      	strb	r3, [r7, #23]
 800194a:	4b82      	ldr	r3, [pc, #520]	@ (8001b54 <HAL_RCC_OscConfig+0x4c8>)
 800194c:	681b      	ldr	r3, [r3, #0]
 800194e:	f403 7380 	and.w	r3, r3, #256	@ 0x100
 8001952:	2b00      	cmp	r3, #0
 8001954:	d118      	bne.n	8001988 <HAL_RCC_OscConfig+0x2fc>
 8001956:	4b7f      	ldr	r3, [pc, #508]	@ (8001b54 <HAL_RCC_OscConfig+0x4c8>)
 8001958:	681b      	ldr	r3, [r3, #0]
 800195a:	4a7e      	ldr	r2, [pc, #504]	@ (8001b54 <HAL_RCC_OscConfig+0x4c8>)
 800195c:	f443 7380 	orr.w	r3, r3, #256	@ 0x100
 8001960:	6013      	str	r3, [r2, #0]
 8001962:	f7ff fbc7 	bl	80010f4 <HAL_GetTick>
 8001966:	6138      	str	r0, [r7, #16]
 8001968:	e008      	b.n	800197c <HAL_RCC_OscConfig+0x2f0>
 800196a:	f7ff fbc3 	bl	80010f4 <HAL_GetTick>
 800196e:	4602      	mov	r2, r0
 8001970:	693b      	ldr	r3, [r7, #16]
 8001972:	1ad3      	subs	r3, r2, r3
 8001974:	2b64      	cmp	r3, #100	@ 0x64
 8001976:	d901      	bls.n	800197c <HAL_RCC_OscConfig+0x2f0>
 8001978:	2303      	movs	r3, #3
 800197a:	e103      	b.n	8001b84 <HAL_RCC_OscConfig+0x4f8>
 800197c:	4b75      	ldr	r3, [pc, #468]	@ (8001b54 <HAL_RCC_OscConfig+0x4c8>)
 800197e:	681b      	ldr	r3, [r3, #0]
 8001980:	f403 7380 	and.w	r3, r3, #256	@ 0x100
 8001984:	2b00      	cmp	r3, #0
 8001986:	d0f0      	beq.n	800196a <HAL_RCC_OscConfig+0x2de>
 8001988:	687b      	ldr	r3, [r7, #4]
 800198a:	68db      	ldr	r3, [r3, #12]
 800198c:	2b01      	cmp	r3, #1
 800198e:	d106      	bne.n	800199e <HAL_RCC_OscConfig+0x312>
 8001990:	4b6f      	ldr	r3, [pc, #444]	@ (8001b50 <HAL_RCC_OscConfig+0x4c4>)
 8001992:	6a1b      	ldr	r3, [r3, #32]
 8001994:	4a6e      	ldr	r2, [pc, #440]	@ (8001b50 <HAL_RCC_OscConfig+0x4c4>)
 8001996:	f043 0301 	orr.w	r3, r3, #1
 800199a:	6213      	str	r3, [r2, #32]
 800199c:	e02d      	b.n	80019fa <HAL_RCC_OscConfig+0x36e>
 800199e:	687b      	ldr	r3, [r7, #4]
 80019a0:	68db      	ldr	r3, [r3, #12]
 80019a2:	2b00      	cmp	r3, #0
 80019a4:	d10c      	bne.n	80019c0 <HAL_RCC_OscConfig+0x334>
 80019a6:	4b6a      	ldr	r3, [pc, #424]	@ (8001b50 <HAL_RCC_OscConfig+0x4c4>)
 80019a8:	6a1b      	ldr	r3, [r3, #32]
 80019aa:	4a69      	ldr	r2, [pc, #420]	@ (8001b50 <HAL_RCC_OscConfig+0x4c4>)
 80019ac:	f023 0301 	bic.w	r3, r3, #1
 80019b0:	6213      	str	r3, [r2, #32]
 80019b2:	4b67      	ldr	r3, [pc, #412]	@ (8001b50 <HAL_RCC_OscConfig+0x4c4>)
 80019b4:	6a1b      	ldr	r3, [r3, #32]
 80019b6:	4a66      	ldr	r2, [pc, #408]	@ (8001b50 <HAL_RCC_OscConfig+0x4c4>)
 80019b8:	f023 0304 	bic.w	r3, r3, #4
 80019bc:	6213      	str	r3, [r2, #32]
 80019be:	e01c      	b.n	80019fa <HAL_RCC_OscConfig+0x36e>
 80019c0:	687b      	ldr	r3, [r7, #4]
 80019c2:	68db      	ldr	r3, [r3, #12]
 80019c4:	2b05      	cmp	r3, #5
 80019c6:	d10c      	bne.n	80019e2 <HAL_RCC_OscConfig+0x356>
 80019c8:	4b61      	ldr	r3, [pc, #388]	@ (8001b50 <HAL_RCC_OscConfig+0x4c4>)
 80019ca:	6a1b      	ldr	r3, [r3, #32]
 80019cc:	4a60      	ldr	r2, [pc, #384]	@ (8001b50 <HAL_RCC_OscConfig+0x4c4>)
 80019ce:	f043 0304 	orr.w	r3, r3, #4
 80019d2:	6213      	str	r3, [r2, #32]
 80019d4:	4b5e      	ldr	r3, [pc, #376]	@ (8001b50 <HAL_RCC_OscConfig+0x4c4>)
 80019d6:	6a1b      	ldr	r3, [r3, #32]
 80019d8:	4a5d      	ldr	r2, [pc, #372]	@ (8001b50 <HAL_RCC_OscConfig+0x4c4>)
 80019da:	f043 0301 	orr.w	r3, r3, #1
 80019de:	6213      	str	r3, [r2, #32]
 80019e0:	e00b      	b.n	80019fa <HAL_RCC_OscConfig+0x36e>
 80019e2:	4b5b      	ldr	r3, [pc, #364]	@ (8001b50 <HAL_RCC_OscConfig+0x4c4>)
 80019e4:	6a1b      	ldr	r3, [r3, #32]
 80019e6:	4a5a      	ldr	r2, [pc, #360]	@ (8001b50 <HAL_RCC_OscConfig+0x4c4>)
 80019e8:	f023 0301 	bic.w	r3, r3, #1
 80019ec:	6213      	str	r3, [r2, #32]
 80019ee:	4b58      	ldr	r3, [pc, #352]	@ (8001b50 <HAL_RCC_OscConfig+0x4c4>)
 80019f0:	6a1b      	ldr	r3, [r3, #32]
 80019f2:	4a57      	ldr	r2, [pc, #348]	@ (8001b50 <HAL_RCC_OscConfig+0x4c4>)
 80019f4:	f023 0304 	bic.w	r3, r3, #4
 80019f8:	6213      	str	r3, [r2, #32]
 80019fa:	687b      	ldr	r3, [r7, #4]
 80019fc:	68db      	ldr	r3, [r3, #12]
 80019fe:	2b00      	cmp	r3, #0
 8001a00:	d015      	beq.n	8001a2e <HAL_RCC_OscConfig+0x3a2>
 8001a02:	f7ff fb77 	bl	80010f4 <HAL_GetTick>
 8001a06:	6138      	str	r0, [r7, #16]
 8001a08:	e00a      	b.n	8001a20 <HAL_RCC_OscConfig+0x394>
 8001a0a:	f7ff fb73 	bl	80010f4 <HAL_GetTick>
 8001a0e:	4602      	mov	r2, r0
 8001a10:	693b      	ldr	r3, [r7, #16]
 8001a12:	1ad3      	subs	r3, r2, r3
 8001a14:	f241 3288 	movw	r2, #5000	@ 0x1388
 8001a18:	4293      	cmp	r3, r2
 8001a1a:	d901      	bls.n	8001a20 <HAL_RCC_OscConfig+0x394>
 8001a1c:	2303      	movs	r3, #3
 8001a1e:	e0b1      	b.n	8001b84 <HAL_RCC_OscConfig+0x4f8>
 8001a20:	4b4b      	ldr	r3, [pc, #300]	@ (8001b50 <HAL_RCC_OscConfig+0x4c4>)
 8001a22:	6a1b      	ldr	r3, [r3, #32]
 8001a24:	f003 0302 	and.w	r3, r3, #2
 8001a28:	2b00      	cmp	r3, #0
 8001a2a:	d0ee      	beq.n	8001a0a <HAL_RCC_OscConfig+0x37e>
 8001a2c:	e014      	b.n	8001a58 <HAL_RCC_OscConfig+0x3cc>
 8001a2e:	f7ff fb61 	bl	80010f4 <HAL_GetTick>
 8001a32:	6138      	str	r0, [r7, #16]
 8001a34:	e00a      	b.n	8001a4c <HAL_RCC_OscConfig+0x3c0>
 8001a36:	f7ff fb5d 	bl	80010f4 <HAL_GetTick>
 8001a3a:	4602      	mov	r2, r0
 8001a3c:	693b      	ldr	r3, [r7, #16]
 8001a3e:	1ad3      	subs	r3, r2, r3
 8001a40:	f241 3288 	movw	r2, #5000	@ 0x1388
 8001a44:	4293      	cmp	r3, r2
 8001a46:	d901      	bls.n	8001a4c <HAL_RCC_OscConfig+0x3c0>
 8001a48:	2303      	movs	r3, #3
 8001a4a:	e09b      	b.n	8001b84 <HAL_RCC_OscConfig+0x4f8>
 8001a4c:	4b40      	ldr	r3, [pc, #256]	@ (8001b50 <HAL_RCC_OscConfig+0x4c4>)
 8001a4e:	6a1b      	ldr	r3, [r3, #32]
 8001a50:	f003 0302 	and.w	r3, r3, #2
 8001a54:	2b00      	cmp	r3, #0
 8001a56:	d1ee      	bne.n	8001a36 <HAL_RCC_OscConfig+0x3aa>
 8001a58:	7dfb      	ldrb	r3, [r7, #23]
 8001a5a:	2b01      	cmp	r3, #1
 8001a5c:	d105      	bne.n	8001a6a <HAL_RCC_OscConfig+0x3de>
 8001a5e:	4b3c      	ldr	r3, [pc, #240]	@ (8001b50 <HAL_RCC_OscConfig+0x4c4>)
 8001a60:	69db      	ldr	r3, [r3, #28]
 8001a62:	4a3b      	ldr	r2, [pc, #236]	@ (8001b50 <HAL_RCC_OscConfig+0x4c4>)
 8001a64:	f023 5380 	bic.w	r3, r3, #268435456	@ 0x10000000
 8001a68:	61d3      	str	r3, [r2, #28]
 8001a6a:	687b      	ldr	r3, [r7, #4]
 8001a6c:	69db      	ldr	r3, [r3, #28]
 8001a6e:	2b00      	cmp	r3, #0
 8001a70:	f000 8087 	beq.w	8001b82 <HAL_RCC_OscConfig+0x4f6>
 8001a74:	4b36      	ldr	r3, [pc, #216]	@ (8001b50 <HAL_RCC_OscConfig+0x4c4>)
 8001a76:	685b      	ldr	r3, [r3, #4]
 8001a78:	f003 030c 	and.w	r3, r3, #12
 8001a7c:	2b08      	cmp	r3, #8
 8001a7e:	d061      	beq.n	8001b44 <HAL_RCC_OscConfig+0x4b8>
 8001a80:	687b      	ldr	r3, [r7, #4]
 8001a82:	69db      	ldr	r3, [r3, #28]
 8001a84:	2b02      	cmp	r3, #2
 8001a86:	d146      	bne.n	8001b16 <HAL_RCC_OscConfig+0x48a>
 8001a88:	4b33      	ldr	r3, [pc, #204]	@ (8001b58 <HAL_RCC_OscConfig+0x4cc>)
 8001a8a:	2200      	movs	r2, #0
 8001a8c:	601a      	str	r2, [r3, #0]
 8001a8e:	f7ff fb31 	bl	80010f4 <HAL_GetTick>
 8001a92:	6138      	str	r0, [r7, #16]
 8001a94:	e008      	b.n	8001aa8 <HAL_RCC_OscConfig+0x41c>
 8001a96:	f7ff fb2d 	bl	80010f4 <HAL_GetTick>
 8001a9a:	4602      	mov	r2, r0
 8001a9c:	693b      	ldr	r3, [r7, #16]
 8001a9e:	1ad3      	subs	r3, r2, r3
 8001aa0:	2b02      	cmp	r3, #2
 8001aa2:	d901      	bls.n	8001aa8 <HAL_RCC_OscConfig+0x41c>
 8001aa4:	2303      	movs	r3, #3
 8001aa6:	e06d      	b.n	8001b84 <HAL_RCC_OscConfig+0x4f8>
 8001aa8:	4b29      	ldr	r3, [pc, #164]	@ (8001b50 <HAL_RCC_OscConfig+0x4c4>)
 8001aaa:	681b      	ldr	r3, [r3, #0]
 8001aac:	f003 7300 	and.w	r3, r3, #33554432	@ 0x2000000
 8001ab0:	2b00      	cmp	r3, #0
 8001ab2:	d1f0      	bne.n	8001a96 <HAL_RCC_OscConfig+0x40a>
 8001ab4:	687b      	ldr	r3, [r7, #4]
 8001ab6:	6a1b      	ldr	r3, [r3, #32]
 8001ab8:	f5b3 3f80 	cmp.w	r3, #65536	@ 0x10000
 8001abc:	d108      	bne.n	8001ad0 <HAL_RCC_OscConfig+0x444>
 8001abe:	4b24      	ldr	r3, [pc, #144]	@ (8001b50 <HAL_RCC_OscConfig+0x4c4>)
 8001ac0:	685b      	ldr	r3, [r3, #4]
 8001ac2:	f423 3200 	bic.w	r2, r3, #131072	@ 0x20000
 8001ac6:	687b      	ldr	r3, [r7, #4]
 8001ac8:	689b      	ldr	r3, [r3, #8]
 8001aca:	4921      	ldr	r1, [pc, #132]	@ (8001b50 <HAL_RCC_OscConfig+0x4c4>)
 8001acc:	4313      	orrs	r3, r2
 8001ace:	604b      	str	r3, [r1, #4]
 8001ad0:	4b1f      	ldr	r3, [pc, #124]	@ (8001b50 <HAL_RCC_OscConfig+0x4c4>)
 8001ad2:	685b      	ldr	r3, [r3, #4]
 8001ad4:	f423 1274 	bic.w	r2, r3, #3997696	@ 0x3d0000
 8001ad8:	687b      	ldr	r3, [r7, #4]
 8001ada:	6a19      	ldr	r1, [r3, #32]
 8001adc:	687b      	ldr	r3, [r7, #4]
 8001ade:	6a5b      	ldr	r3, [r3, #36]	@ 0x24
 8001ae0:	430b      	orrs	r3, r1
 8001ae2:	491b      	ldr	r1, [pc, #108]	@ (8001b50 <HAL_RCC_OscConfig+0x4c4>)
 8001ae4:	4313      	orrs	r3, r2
 8001ae6:	604b      	str	r3, [r1, #4]
 8001ae8:	4b1b      	ldr	r3, [pc, #108]	@ (8001b58 <HAL_RCC_OscConfig+0x4cc>)
 8001aea:	2201      	movs	r2, #1
 8001aec:	601a      	str	r2, [r3, #0]
 8001aee:	f7ff fb01 	bl	80010f4 <HAL_GetTick>
 8001af2:	6138      	str	r0, [r7, #16]
 8001af4:	e008      	b.n	8001b08 <HAL_RCC_OscConfig+0x47c>
 8001af6:	f7ff fafd 	bl	80010f4 <HAL_GetTick>
 8001afa:	4602      	mov	r2, r0
 8001afc:	693b      	ldr	r3, [r7, #16]
 8001afe:	1ad3      	subs	r3, r2, r3
 8001b00:	2b02      	cmp	r3, #2
 8001b02:	d901      	bls.n	8001b08 <HAL_RCC_OscConfig+0x47c>
 8001b04:	2303      	movs	r3, #3
 8001b06:	e03d      	b.n	8001b84 <HAL_RCC_OscConfig+0x4f8>
 8001b08:	4b11      	ldr	r3, [pc, #68]	@ (8001b50 <HAL_RCC_OscConfig+0x4c4>)
 8001b0a:	681b      	ldr	r3, [r3, #0]
 8001b0c:	f003 7300 	and.w	r3, r3, #33554432	@ 0x2000000
 8001b10:	2b00      	cmp	r3, #0
 8001b12:	d0f0      	beq.n	8001af6 <HAL_RCC_OscConfig+0x46a>
 8001b14:	e035      	b.n	8001b82 <HAL_RCC_OscConfig+0x4f6>
 8001b16:	4b10      	ldr	r3, [pc, #64]	@ (8001b58 <HAL_RCC_OscConfig+0x4cc>)
 8001b18:	2200      	movs	r2, #0
 8001b1a:	601a      	str	r2, [r3, #0]
 8001b1c:	f7ff faea 	bl	80010f4 <HAL_GetTick>
 8001b20:	6138      	str	r0, [r7, #16]
 8001b22:	e008      	b.n	8001b36 <HAL_RCC_OscConfig+0x4aa>
 8001b24:	f7ff fae6 	bl	80010f4 <HAL_GetTick>
 8001b28:	4602      	mov	r2, r0
 8001b2a:	693b      	ldr	r3, [r7, #16]
 8001b2c:	1ad3      	subs	r3, r2, r3
 8001b2e:	2b02      	cmp	r3, #2
 8001b30:	d901      	bls.n	8001b36 <HAL_RCC_OscConfig+0x4aa>
 8001b32:	2303      	movs	r3, #3
 8001b34:	e026      	b.n	8001b84 <HAL_RCC_OscConfig+0x4f8>
 8001b36:	4b06      	ldr	r3, [pc, #24]	@ (8001b50 <HAL_RCC_OscConfig+0x4c4>)
 8001b38:	681b      	ldr	r3, [r3, #0]
 8001b3a:	f003 7300 	and.w	r3, r3, #33554432	@ 0x2000000
 8001b3e:	2b00      	cmp	r3, #0
 8001b40:	d1f0      	bne.n	8001b24 <HAL_RCC_OscConfig+0x498>
 8001b42:	e01e      	b.n	8001b82 <HAL_RCC_OscConfig+0x4f6>
 8001b44:	687b      	ldr	r3, [r7, #4]
 8001b46:	69db      	ldr	r3, [r3, #28]
 8001b48:	2b01      	cmp	r3, #1
 8001b4a:	d107      	bne.n	8001b5c <HAL_RCC_OscConfig+0x4d0>
 8001b4c:	2301      	movs	r3, #1
 8001b4e:	e019      	b.n	8001b84 <HAL_RCC_OscConfig+0x4f8>
 8001b50:	40021000 	.word	0x40021000
 8001b54:	40007000 	.word	0x40007000
 8001b58:	42420060 	.word	0x42420060
 8001b5c:	4b0b      	ldr	r3, [pc, #44]	@ (8001b8c <HAL_RCC_OscConfig+0x500>)
 8001b5e:	685b      	ldr	r3, [r3, #4]
 8001b60:	60fb      	str	r3, [r7, #12]
 8001b62:	68fb      	ldr	r3, [r7, #12]
 8001b64:	f403 3280 	and.w	r2, r3, #65536	@ 0x10000
 8001b68:	687b      	ldr	r3, [r7, #4]
 8001b6a:	6a1b      	ldr	r3, [r3, #32]
 8001b6c:	429a      	cmp	r2, r3
 8001b6e:	d106      	bne.n	8001b7e <HAL_RCC_OscConfig+0x4f2>
 8001b70:	68fb      	ldr	r3, [r7, #12]
 8001b72:	f403 1270 	and.w	r2, r3, #3932160	@ 0x3c0000
 8001b76:	687b      	ldr	r3, [r7, #4]
 8001b78:	6a5b      	ldr	r3, [r3, #36]	@ 0x24
 8001b7a:	429a      	cmp	r2, r3
 8001b7c:	d001      	beq.n	8001b82 <HAL_RCC_OscConfig+0x4f6>
 8001b7e:	2301      	movs	r3, #1
 8001b80:	e000      	b.n	8001b84 <HAL_RCC_OscConfig+0x4f8>
 8001b82:	2300      	movs	r3, #0
 8001b84:	4618      	mov	r0, r3
 8001b86:	3718      	adds	r7, #24
 8001b88:	46bd      	mov	sp, r7
 8001b8a:	bd80      	pop	{r7, pc}
 8001b8c:	40021000 	.word	0x40021000

08001b90 <HAL_RCC_ClockConfig>:
 8001b90:	b580      	push	{r7, lr}
 8001b92:	b084      	sub	sp, #16
 8001b94:	af00      	add	r7, sp, #0
 8001b96:	6078      	str	r0, [r7, #4]
 8001b98:	6039      	str	r1, [r7, #0]
 8001b9a:	687b      	ldr	r3, [r7, #4]
 8001b9c:	2b00      	cmp	r3, #0
 8001b9e:	d101      	bne.n	8001ba4 <HAL_RCC_ClockConfig+0x14>
 8001ba0:	2301      	movs	r3, #1
 8001ba2:	e0d0      	b.n	8001d46 <HAL_RCC_ClockConfig+0x1b6>
 8001ba4:	4b6a      	ldr	r3, [pc, #424]	@ (8001d50 <HAL_RCC_ClockConfig+0x1c0>)
 8001ba6:	681b      	ldr	r3, [r3, #0]
 8001ba8:	f003 0307 	and.w	r3, r3, #7
 8001bac:	683a      	ldr	r2, [r7, #0]
 8001bae:	429a      	cmp	r2, r3
 8001bb0:	d910      	bls.n	8001bd4 <HAL_RCC_ClockConfig+0x44>
 8001bb2:	4b67      	ldr	r3, [pc, #412]	@ (8001d50 <HAL_RCC_ClockConfig+0x1c0>)
 8001bb4:	681b      	ldr	r3, [r3, #0]
 8001bb6:	f023 0207 	bic.w	r2, r3, #7
 8001bba:	4965      	ldr	r1, [pc, #404]	@ (8001d50 <HAL_RCC_ClockConfig+0x1c0>)
 8001bbc:	683b      	ldr	r3, [r7, #0]
 8001bbe:	4313      	orrs	r3, r2
 8001bc0:	600b      	str	r3, [r1, #0]
 8001bc2:	4b63      	ldr	r3, [pc, #396]	@ (8001d50 <HAL_RCC_ClockConfig+0x1c0>)
 8001bc4:	681b      	ldr	r3, [r3, #0]
 8001bc6:	f003 0307 	and.w	r3, r3, #7
 8001bca:	683a      	ldr	r2, [r7, #0]
 8001bcc:	429a      	cmp	r2, r3
 8001bce:	d001      	beq.n	8001bd4 <HAL_RCC_ClockConfig+0x44>
 8001bd0:	2301      	movs	r3, #1
 8001bd2:	e0b8      	b.n	8001d46 <HAL_RCC_ClockConfig+0x1b6>
 8001bd4:	687b      	ldr	r3, [r7, #4]
 8001bd6:	681b      	ldr	r3, [r3, #0]
 8001bd8:	f003 0302 	and.w	r3, r3, #2
 8001bdc:	2b00      	cmp	r3, #0
 8001bde:	d020      	beq.n	8001c22 <HAL_RCC_ClockConfig+0x92>
 8001be0:	687b      	ldr	r3, [r7, #4]
 8001be2:	681b      	ldr	r3, [r3, #0]
 8001be4:	f003 0304 	and.w	r3, r3, #4
 8001be8:	2b00      	cmp	r3, #0
 8001bea:	d005      	beq.n	8001bf8 <HAL_RCC_ClockConfig+0x68>
 8001bec:	4b59      	ldr	r3, [pc, #356]	@ (8001d54 <HAL_RCC_ClockConfig+0x1c4>)
 8001bee:	685b      	ldr	r3, [r3, #4]
 8001bf0:	4a58      	ldr	r2, [pc, #352]	@ (8001d54 <HAL_RCC_ClockConfig+0x1c4>)
 8001bf2:	f443 63e0 	orr.w	r3, r3, #1792	@ 0x700
 8001bf6:	6053      	str	r3, [r2, #4]
 8001bf8:	687b      	ldr	r3, [r7, #4]
 8001bfa:	681b      	ldr	r3, [r3, #0]
 8001bfc:	f003 0308 	and.w	r3, r3, #8
 8001c00:	2b00      	cmp	r3, #0
 8001c02:	d005      	beq.n	8001c10 <HAL_RCC_ClockConfig+0x80>
 8001c04:	4b53      	ldr	r3, [pc, #332]	@ (8001d54 <HAL_RCC_ClockConfig+0x1c4>)
 8001c06:	685b      	ldr	r3, [r3, #4]
 8001c08:	4a52      	ldr	r2, [pc, #328]	@ (8001d54 <HAL_RCC_ClockConfig+0x1c4>)
 8001c0a:	f443 5360 	orr.w	r3, r3, #14336	@ 0x3800
 8001c0e:	6053      	str	r3, [r2, #4]
 8001c10:	4b50      	ldr	r3, [pc, #320]	@ (8001d54 <HAL_RCC_ClockConfig+0x1c4>)
 8001c12:	685b      	ldr	r3, [r3, #4]
 8001c14:	f023 02f0 	bic.w	r2, r3, #240	@ 0xf0
 8001c18:	687b      	ldr	r3, [r7, #4]
 8001c1a:	689b      	ldr	r3, [r3, #8]
 8001c1c:	494d      	ldr	r1, [pc, #308]	@ (8001d54 <HAL_RCC_ClockConfig+0x1c4>)
 8001c1e:	4313      	orrs	r3, r2
 8001c20:	604b      	str	r3, [r1, #4]
 8001c22:	687b      	ldr	r3, [r7, #4]
 8001c24:	681b      	ldr	r3, [r3, #0]
 8001c26:	f003 0301 	and.w	r3, r3, #1
 8001c2a:	2b00      	cmp	r3, #0
 8001c2c:	d040      	beq.n	8001cb0 <HAL_RCC_ClockConfig+0x120>
 8001c2e:	687b      	ldr	r3, [r7, #4]
 8001c30:	685b      	ldr	r3, [r3, #4]
 8001c32:	2b01      	cmp	r3, #1
 8001c34:	d107      	bne.n	8001c46 <HAL_RCC_ClockConfig+0xb6>
 8001c36:	4b47      	ldr	r3, [pc, #284]	@ (8001d54 <HAL_RCC_ClockConfig+0x1c4>)
 8001c38:	681b      	ldr	r3, [r3, #0]
 8001c3a:	f403 3300 	and.w	r3, r3, #131072	@ 0x20000
 8001c3e:	2b00      	cmp	r3, #0
 8001c40:	d115      	bne.n	8001c6e <HAL_RCC_ClockConfig+0xde>
 8001c42:	2301      	movs	r3, #1
 8001c44:	e07f      	b.n	8001d46 <HAL_RCC_ClockConfig+0x1b6>
 8001c46:	687b      	ldr	r3, [r7, #4]
 8001c48:	685b      	ldr	r3, [r3, #4]
 8001c4a:	2b02      	cmp	r3, #2
 8001c4c:	d107      	bne.n	8001c5e <HAL_RCC_ClockConfig+0xce>
 8001c4e:	4b41      	ldr	r3, [pc, #260]	@ (8001d54 <HAL_RCC_ClockConfig+0x1c4>)
 8001c50:	681b      	ldr	r3, [r3, #0]
 8001c52:	f003 7300 	and.w	r3, r3, #33554432	@ 0x2000000
 8001c56:	2b00      	cmp	r3, #0
 8001c58:	d109      	bne.n	8001c6e <HAL_RCC_ClockConfig+0xde>
 8001c5a:	2301      	movs	r3, #1
 8001c5c:	e073      	b.n	8001d46 <HAL_RCC_ClockConfig+0x1b6>
 8001c5e:	4b3d      	ldr	r3, [pc, #244]	@ (8001d54 <HAL_RCC_ClockConfig+0x1c4>)
 8001c60:	681b      	ldr	r3, [r3, #0]
 8001c62:	f003 0302 	and.w	r3, r3, #2
 8001c66:	2b00      	cmp	r3, #0
 8001c68:	d101      	bne.n	8001c6e <HAL_RCC_ClockConfig+0xde>
 8001c6a:	2301      	movs	r3, #1
 8001c6c:	e06b      	b.n	8001d46 <HAL_RCC_ClockConfig+0x1b6>
 8001c6e:	4b39      	ldr	r3, [pc, #228]	@ (8001d54 <HAL_RCC_ClockConfig+0x1c4>)
 8001c70:	685b      	ldr	r3, [r3, #4]
 8001c72:	f023 0203 	bic.w	r2, r3, #3
 8001c76:	687b      	ldr	r3, [r7, #4]
 8001c78:	685b      	ldr	r3, [r3, #4]
 8001c7a:	4936      	ldr	r1, [pc, #216]	@ (8001d54 <HAL_RCC_ClockConfig+0x1c4>)
 8001c7c:	4313      	orrs	r3, r2
 8001c7e:	604b      	str	r3, [r1, #4]
 8001c80:	f7ff fa38 	bl	80010f4 <HAL_GetTick>
 8001c84:	60f8      	str	r0, [r7, #12]
 8001c86:	e00a      	b.n	8001c9e <HAL_RCC_ClockConfig+0x10e>
 8001c88:	f7ff fa34 	bl	80010f4 <HAL_GetTick>
 8001c8c:	4602      	mov	r2, r0
 8001c8e:	68fb      	ldr	r3, [r7, #12]
 8001c90:	1ad3      	subs	r3, r2, r3
 8001c92:	f241 3288 	movw	r2, #5000	@ 0x1388
 8001c96:	4293      	cmp	r3, r2
 8001c98:	d901      	bls.n	8001c9e <HAL_RCC_ClockConfig+0x10e>
 8001c9a:	2303      	movs	r3, #3
 8001c9c:	e053      	b.n	8001d46 <HAL_RCC_ClockConfig+0x1b6>
 8001c9e:	4b2d      	ldr	r3, [pc, #180]	@ (8001d54 <HAL_RCC_ClockConfig+0x1c4>)
 8001ca0:	685b      	ldr	r3, [r3, #4]
 8001ca2:	f003 020c 	and.w	r2, r3, #12
 8001ca6:	687b      	ldr	r3, [r7, #4]
 8001ca8:	685b      	ldr	r3, [r3, #4]
 8001caa:	009b      	lsls	r3, r3, #2
 8001cac:	429a      	cmp	r2, r3
 8001cae:	d1eb      	bne.n	8001c88 <HAL_RCC_ClockConfig+0xf8>
 8001cb0:	4b27      	ldr	r3, [pc, #156]	@ (8001d50 <HAL_RCC_ClockConfig+0x1c0>)
 8001cb2:	681b      	ldr	r3, [r3, #0]
 8001cb4:	f003 0307 	and.w	r3, r3, #7
 8001cb8:	683a      	ldr	r2, [r7, #0]
 8001cba:	429a      	cmp	r2, r3
 8001cbc:	d210      	bcs.n	8001ce0 <HAL_RCC_ClockConfig+0x150>
 8001cbe:	4b24      	ldr	r3, [pc, #144]	@ (8001d50 <HAL_RCC_ClockConfig+0x1c0>)
 8001cc0:	681b      	ldr	r3, [r3, #0]
 8001cc2:	f023 0207 	bic.w	r2, r3, #7
 8001cc6:	4922      	ldr	r1, [pc, #136]	@ (8001d50 <HAL_RCC_ClockConfig+0x1c0>)
 8001cc8:	683b      	ldr	r3, [r7, #0]
 8001cca:	4313      	orrs	r3, r2
 8001ccc:	600b      	str	r3, [r1, #0]
 8001cce:	4b20      	ldr	r3, [pc, #128]	@ (8001d50 <HAL_RCC_ClockConfig+0x1c0>)
 8001cd0:	681b      	ldr	r3, [r3, #0]
 8001cd2:	f003 0307 	and.w	r3, r3, #7
 8001cd6:	683a      	ldr	r2, [r7, #0]
 8001cd8:	429a      	cmp	r2, r3
 8001cda:	d001      	beq.n	8001ce0 <HAL_RCC_ClockConfig+0x150>
 8001cdc:	2301      	movs	r3, #1
 8001cde:	e032      	b.n	8001d46 <HAL_RCC_ClockConfig+0x1b6>
 8001ce0:	687b      	ldr	r3, [r7, #4]
 8001ce2:	681b      	ldr	r3, [r3, #0]
 8001ce4:	f003 0304 	and.w	r3, r3, #4
 8001ce8:	2b00      	cmp	r3, #0
 8001cea:	d008      	beq.n	8001cfe <HAL_RCC_ClockConfig+0x16e>
 8001cec:	4b19      	ldr	r3, [pc, #100]	@ (8001d54 <HAL_RCC_ClockConfig+0x1c4>)
 8001cee:	685b      	ldr	r3, [r3, #4]
 8001cf0:	f423 62e0 	bic.w	r2, r3, #1792	@ 0x700
 8001cf4:	687b      	ldr	r3, [r7, #4]
 8001cf6:	68db      	ldr	r3, [r3, #12]
 8001cf8:	4916      	ldr	r1, [pc, #88]	@ (8001d54 <HAL_RCC_ClockConfig+0x1c4>)
 8001cfa:	4313      	orrs	r3, r2
 8001cfc:	604b      	str	r3, [r1, #4]
 8001cfe:	687b      	ldr	r3, [r7, #4]
 8001d00:	681b      	ldr	r3, [r3, #0]
 8001d02:	f003 0308 	and.w	r3, r3, #8
 8001d06:	2b00      	cmp	r3, #0
 8001d08:	d009      	beq.n	8001d1e <HAL_RCC_ClockConfig+0x18e>
 8001d0a:	4b12      	ldr	r3, [pc, #72]	@ (8001d54 <HAL_RCC_ClockConfig+0x1c4>)
 8001d0c:	685b      	ldr	r3, [r3, #4]
 8001d0e:	f423 5260 	bic.w	r2, r3, #14336	@ 0x3800
 8001d12:	687b      	ldr	r3, [r7, #4]
 8001d14:	691b      	ldr	r3, [r3, #16]
 8001d16:	00db      	lsls	r3, r3, #3
 8001d18:	490e      	ldr	r1, [pc, #56]	@ (8001d54 <HAL_RCC_ClockConfig+0x1c4>)
 8001d1a:	4313      	orrs	r3, r2
 8001d1c:	604b      	str	r3, [r1, #4]
 8001d1e:	f000 f821 	bl	8001d64 <HAL_RCC_GetSysClockFreq>
 8001d22:	4602      	mov	r2, r0
 8001d24:	4b0b      	ldr	r3, [pc, #44]	@ (8001d54 <HAL_RCC_ClockConfig+0x1c4>)
 8001d26:	685b      	ldr	r3, [r3, #4]
 8001d28:	091b      	lsrs	r3, r3, #4
 8001d2a:	f003 030f 	and.w	r3, r3, #15
 8001d2e:	490a      	ldr	r1, [pc, #40]	@ (8001d58 <HAL_RCC_ClockConfig+0x1c8>)
 8001d30:	5ccb      	ldrb	r3, [r1, r3]
 8001d32:	fa22 f303 	lsr.w	r3, r2, r3
 8001d36:	4a09      	ldr	r2, [pc, #36]	@ (8001d5c <HAL_RCC_ClockConfig+0x1cc>)
 8001d38:	6013      	str	r3, [r2, #0]
 8001d3a:	4b09      	ldr	r3, [pc, #36]	@ (8001d60 <HAL_RCC_ClockConfig+0x1d0>)
 8001d3c:	681b      	ldr	r3, [r3, #0]
 8001d3e:	4618      	mov	r0, r3
 8001d40:	f7ff f996 	bl	8001070 <HAL_InitTick>
 8001d44:	2300      	movs	r3, #0
 8001d46:	4618      	mov	r0, r3
 8001d48:	3710      	adds	r7, #16
 8001d4a:	46bd      	mov	sp, r7
 8001d4c:	bd80      	pop	{r7, pc}
 8001d4e:	bf00      	nop
 8001d50:	40022000 	.word	0x40022000
 8001d54:	40021000 	.word	0x40021000
 8001d58:	08002ba4 	.word	0x08002ba4
 8001d5c:	20000024 	.word	0x20000024
 8001d60:	20000028 	.word	0x20000028

08001d64 <HAL_RCC_GetSysClockFreq>:
 8001d64:	b480      	push	{r7}
 8001d66:	b087      	sub	sp, #28
 8001d68:	af00      	add	r7, sp, #0
 8001d6a:	2300      	movs	r3, #0
 8001d6c:	60fb      	str	r3, [r7, #12]
 8001d6e:	2300      	movs	r3, #0
 8001d70:	60bb      	str	r3, [r7, #8]
 8001d72:	2300      	movs	r3, #0
 8001d74:	617b      	str	r3, [r7, #20]
 8001d76:	2300      	movs	r3, #0
 8001d78:	607b      	str	r3, [r7, #4]
 8001d7a:	2300      	movs	r3, #0
 8001d7c:	613b      	str	r3, [r7, #16]
 8001d7e:	4b1e      	ldr	r3, [pc, #120]	@ (8001df8 <HAL_RCC_GetSysClockFreq+0x94>)
 8001d80:	685b      	ldr	r3, [r3, #4]
 8001d82:	60fb      	str	r3, [r7, #12]
 8001d84:	68fb      	ldr	r3, [r7, #12]
 8001d86:	f003 030c 	and.w	r3, r3, #12
 8001d8a:	2b04      	cmp	r3, #4
 8001d8c:	d002      	beq.n	8001d94 <HAL_RCC_GetSysClockFreq+0x30>
 8001d8e:	2b08      	cmp	r3, #8
 8001d90:	d003      	beq.n	8001d9a <HAL_RCC_GetSysClockFreq+0x36>
 8001d92:	e027      	b.n	8001de4 <HAL_RCC_GetSysClockFreq+0x80>
 8001d94:	4b19      	ldr	r3, [pc, #100]	@ (8001dfc <HAL_RCC_GetSysClockFreq+0x98>)
 8001d96:	613b      	str	r3, [r7, #16]
 8001d98:	e027      	b.n	8001dea <HAL_RCC_GetSysClockFreq+0x86>
 8001d9a:	68fb      	ldr	r3, [r7, #12]
 8001d9c:	0c9b      	lsrs	r3, r3, #18
 8001d9e:	f003 030f 	and.w	r3, r3, #15
 8001da2:	4a17      	ldr	r2, [pc, #92]	@ (8001e00 <HAL_RCC_GetSysClockFreq+0x9c>)
 8001da4:	5cd3      	ldrb	r3, [r2, r3]
 8001da6:	607b      	str	r3, [r7, #4]
 8001da8:	68fb      	ldr	r3, [r7, #12]
 8001daa:	f403 3380 	and.w	r3, r3, #65536	@ 0x10000
 8001dae:	2b00      	cmp	r3, #0
 8001db0:	d010      	beq.n	8001dd4 <HAL_RCC_GetSysClockFreq+0x70>
 8001db2:	4b11      	ldr	r3, [pc, #68]	@ (8001df8 <HAL_RCC_GetSysClockFreq+0x94>)
 8001db4:	685b      	ldr	r3, [r3, #4]
 8001db6:	0c5b      	lsrs	r3, r3, #17
 8001db8:	f003 0301 	and.w	r3, r3, #1
 8001dbc:	4a11      	ldr	r2, [pc, #68]	@ (8001e04 <HAL_RCC_GetSysClockFreq+0xa0>)
 8001dbe:	5cd3      	ldrb	r3, [r2, r3]
 8001dc0:	60bb      	str	r3, [r7, #8]
 8001dc2:	687b      	ldr	r3, [r7, #4]
 8001dc4:	4a0d      	ldr	r2, [pc, #52]	@ (8001dfc <HAL_RCC_GetSysClockFreq+0x98>)
 8001dc6:	fb03 f202 	mul.w	r2, r3, r2
 8001dca:	68bb      	ldr	r3, [r7, #8]
 8001dcc:	fbb2 f3f3 	udiv	r3, r2, r3
 8001dd0:	617b      	str	r3, [r7, #20]
 8001dd2:	e004      	b.n	8001dde <HAL_RCC_GetSysClockFreq+0x7a>
 8001dd4:	687b      	ldr	r3, [r7, #4]
 8001dd6:	4a0c      	ldr	r2, [pc, #48]	@ (8001e08 <HAL_RCC_GetSysClockFreq+0xa4>)
 8001dd8:	fb02 f303 	mul.w	r3, r2, r3
 8001ddc:	617b      	str	r3, [r7, #20]
 8001dde:	697b      	ldr	r3, [r7, #20]
 8001de0:	613b      	str	r3, [r7, #16]
 8001de2:	e002      	b.n	8001dea <HAL_RCC_GetSysClockFreq+0x86>
 8001de4:	4b05      	ldr	r3, [pc, #20]	@ (8001dfc <HAL_RCC_GetSysClockFreq+0x98>)
 8001de6:	613b      	str	r3, [r7, #16]
 8001de8:	bf00      	nop
 8001dea:	693b      	ldr	r3, [r7, #16]
 8001dec:	4618      	mov	r0, r3
 8001dee:	371c      	adds	r7, #28
 8001df0:	46bd      	mov	sp, r7
 8001df2:	bc80      	pop	{r7}
 8001df4:	4770      	bx	lr
 8001df6:	bf00      	nop
 8001df8:	40021000 	.word	0x40021000
 8001dfc:	007a1200 	.word	0x007a1200
 8001e00:	08002bb4 	.word	0x08002bb4
 8001e04:	08002bc4 	.word	0x08002bc4
 8001e08:	003d0900 	.word	0x003d0900

08001e0c <RCC_Delay>:
 8001e0c:	b480      	push	{r7}
 8001e0e:	b085      	sub	sp, #20
 8001e10:	af00      	add	r7, sp, #0
 8001e12:	6078      	str	r0, [r7, #4]
 8001e14:	4b0a      	ldr	r3, [pc, #40]	@ (8001e40 <RCC_Delay+0x34>)
 8001e16:	681b      	ldr	r3, [r3, #0]
 8001e18:	4a0a      	ldr	r2, [pc, #40]	@ (8001e44 <RCC_Delay+0x38>)
 8001e1a:	fba2 2303 	umull	r2, r3, r2, r3
 8001e1e:	0a5b      	lsrs	r3, r3, #9
 8001e20:	687a      	ldr	r2, [r7, #4]
 8001e22:	fb02 f303 	mul.w	r3, r2, r3
 8001e26:	60fb      	str	r3, [r7, #12]
 8001e28:	bf00      	nop
 8001e2a:	68fb      	ldr	r3, [r7, #12]
 8001e2c:	1e5a      	subs	r2, r3, #1
 8001e2e:	60fa      	str	r2, [r7, #12]
 8001e30:	2b00      	cmp	r3, #0
 8001e32:	d1f9      	bne.n	8001e28 <RCC_Delay+0x1c>
 8001e34:	bf00      	nop
 8001e36:	bf00      	nop
 8001e38:	3714      	adds	r7, #20
 8001e3a:	46bd      	mov	sp, r7
 8001e3c:	bc80      	pop	{r7}
 8001e3e:	4770      	bx	lr
 8001e40:	20000024 	.word	0x20000024
 8001e44:	10624dd3 	.word	0x10624dd3

08001e48 <HAL_SPI_Init>:
 8001e48:	b580      	push	{r7, lr}
 8001e4a:	b082      	sub	sp, #8
 8001e4c:	af00      	add	r7, sp, #0
 8001e4e:	6078      	str	r0, [r7, #4]
 8001e50:	687b      	ldr	r3, [r7, #4]
 8001e52:	2b00      	cmp	r3, #0
 8001e54:	d101      	bne.n	8001e5a <HAL_SPI_Init+0x12>
 8001e56:	2301      	movs	r3, #1
 8001e58:	e076      	b.n	8001f48 <HAL_SPI_Init+0x100>
 8001e5a:	687b      	ldr	r3, [r7, #4]
 8001e5c:	6a5b      	ldr	r3, [r3, #36]	@ 0x24
 8001e5e:	2b00      	cmp	r3, #0
 8001e60:	d108      	bne.n	8001e74 <HAL_SPI_Init+0x2c>
 8001e62:	687b      	ldr	r3, [r7, #4]
 8001e64:	685b      	ldr	r3, [r3, #4]
 8001e66:	f5b3 7f82 	cmp.w	r3, #260	@ 0x104
 8001e6a:	d009      	beq.n	8001e80 <HAL_SPI_Init+0x38>
 8001e6c:	687b      	ldr	r3, [r7, #4]
 8001e6e:	2200      	movs	r2, #0
 8001e70:	61da      	str	r2, [r3, #28]
 8001e72:	e005      	b.n	8001e80 <HAL_SPI_Init+0x38>
 8001e74:	687b      	ldr	r3, [r7, #4]
 8001e76:	2200      	movs	r2, #0
 8001e78:	611a      	str	r2, [r3, #16]
 8001e7a:	687b      	ldr	r3, [r7, #4]
 8001e7c:	2200      	movs	r2, #0
 8001e7e:	615a      	str	r2, [r3, #20]
 8001e80:	687b      	ldr	r3, [r7, #4]
 8001e82:	2200      	movs	r2, #0
 8001e84:	629a      	str	r2, [r3, #40]	@ 0x28
 8001e86:	687b      	ldr	r3, [r7, #4]
 8001e88:	f893 3051 	ldrb.w	r3, [r3, #81]	@ 0x51
 8001e8c:	b2db      	uxtb	r3, r3
 8001e8e:	2b00      	cmp	r3, #0
 8001e90:	d106      	bne.n	8001ea0 <HAL_SPI_Init+0x58>
 8001e92:	687b      	ldr	r3, [r7, #4]
 8001e94:	2200      	movs	r2, #0
 8001e96:	f883 2050 	strb.w	r2, [r3, #80]	@ 0x50
 8001e9a:	6878      	ldr	r0, [r7, #4]
 8001e9c:	f7fe ff96 	bl	8000dcc <HAL_SPI_MspInit>
 8001ea0:	687b      	ldr	r3, [r7, #4]
 8001ea2:	2202      	movs	r2, #2
 8001ea4:	f883 2051 	strb.w	r2, [r3, #81]	@ 0x51
 8001ea8:	687b      	ldr	r3, [r7, #4]
 8001eaa:	681b      	ldr	r3, [r3, #0]
 8001eac:	681a      	ldr	r2, [r3, #0]
 8001eae:	687b      	ldr	r3, [r7, #4]
 8001eb0:	681b      	ldr	r3, [r3, #0]
 8001eb2:	f022 0240 	bic.w	r2, r2, #64	@ 0x40
 8001eb6:	601a      	str	r2, [r3, #0]
 8001eb8:	687b      	ldr	r3, [r7, #4]
 8001eba:	685b      	ldr	r3, [r3, #4]
 8001ebc:	f403 7282 	and.w	r2, r3, #260	@ 0x104
 8001ec0:	687b      	ldr	r3, [r7, #4]
 8001ec2:	689b      	ldr	r3, [r3, #8]
 8001ec4:	f403 4304 	and.w	r3, r3, #33792	@ 0x8400
 8001ec8:	431a      	orrs	r2, r3
 8001eca:	687b      	ldr	r3, [r7, #4]
 8001ecc:	68db      	ldr	r3, [r3, #12]
 8001ece:	f403 6300 	and.w	r3, r3, #2048	@ 0x800
 8001ed2:	431a      	orrs	r2, r3
 8001ed4:	687b      	ldr	r3, [r7, #4]
 8001ed6:	691b      	ldr	r3, [r3, #16]
 8001ed8:	f003 0302 	and.w	r3, r3, #2
 8001edc:	431a      	orrs	r2, r3
 8001ede:	687b      	ldr	r3, [r7, #4]
 8001ee0:	695b      	ldr	r3, [r3, #20]
 8001ee2:	f003 0301 	and.w	r3, r3, #1
 8001ee6:	431a      	orrs	r2, r3
 8001ee8:	687b      	ldr	r3, [r7, #4]
 8001eea:	699b      	ldr	r3, [r3, #24]
 8001eec:	f403 7300 	and.w	r3, r3, #512	@ 0x200
 8001ef0:	431a      	orrs	r2, r3
 8001ef2:	687b      	ldr	r3, [r7, #4]
 8001ef4:	69db      	ldr	r3, [r3, #28]
 8001ef6:	f003 0338 	and.w	r3, r3, #56	@ 0x38
 8001efa:	431a      	orrs	r2, r3
 8001efc:	687b      	ldr	r3, [r7, #4]
 8001efe:	6a1b      	ldr	r3, [r3, #32]
 8001f00:	f003 0380 	and.w	r3, r3, #128	@ 0x80
 8001f04:	ea42 0103 	orr.w	r1, r2, r3
 8001f08:	687b      	ldr	r3, [r7, #4]
 8001f0a:	6a9b      	ldr	r3, [r3, #40]	@ 0x28
 8001f0c:	f403 5200 	and.w	r2, r3, #8192	@ 0x2000
 8001f10:	687b      	ldr	r3, [r7, #4]
 8001f12:	681b      	ldr	r3, [r3, #0]
 8001f14:	430a      	orrs	r2, r1
 8001f16:	601a      	str	r2, [r3, #0]
 8001f18:	687b      	ldr	r3, [r7, #4]
 8001f1a:	699b      	ldr	r3, [r3, #24]
 8001f1c:	0c1a      	lsrs	r2, r3, #16
 8001f1e:	687b      	ldr	r3, [r7, #4]
 8001f20:	681b      	ldr	r3, [r3, #0]
 8001f22:	f002 0204 	and.w	r2, r2, #4
 8001f26:	605a      	str	r2, [r3, #4]
 8001f28:	687b      	ldr	r3, [r7, #4]
 8001f2a:	681b      	ldr	r3, [r3, #0]
 8001f2c:	69da      	ldr	r2, [r3, #28]
 8001f2e:	687b      	ldr	r3, [r7, #4]
 8001f30:	681b      	ldr	r3, [r3, #0]
 8001f32:	f422 6200 	bic.w	r2, r2, #2048	@ 0x800
 8001f36:	61da      	str	r2, [r3, #28]
 8001f38:	687b      	ldr	r3, [r7, #4]
 8001f3a:	2200      	movs	r2, #0
 8001f3c:	655a      	str	r2, [r3, #84]	@ 0x54
 8001f3e:	687b      	ldr	r3, [r7, #4]
 8001f40:	2201      	movs	r2, #1
 8001f42:	f883 2051 	strb.w	r2, [r3, #81]	@ 0x51
 8001f46:	2300      	movs	r3, #0
 8001f48:	4618      	mov	r0, r3
 8001f4a:	3708      	adds	r7, #8
 8001f4c:	46bd      	mov	sp, r7
 8001f4e:	bd80      	pop	{r7, pc}

08001f50 <HAL_SPI_Transmit>:
 8001f50:	b580      	push	{r7, lr}
 8001f52:	b088      	sub	sp, #32
 8001f54:	af00      	add	r7, sp, #0
 8001f56:	60f8      	str	r0, [r7, #12]
 8001f58:	60b9      	str	r1, [r7, #8]
 8001f5a:	603b      	str	r3, [r7, #0]
 8001f5c:	4613      	mov	r3, r2
 8001f5e:	80fb      	strh	r3, [r7, #6]
 8001f60:	2300      	movs	r3, #0
 8001f62:	77fb      	strb	r3, [r7, #31]
 8001f64:	68fb      	ldr	r3, [r7, #12]
 8001f66:	f893 3050 	ldrb.w	r3, [r3, #80]	@ 0x50
 8001f6a:	2b01      	cmp	r3, #1
 8001f6c:	d101      	bne.n	8001f72 <HAL_SPI_Transmit+0x22>
 8001f6e:	2302      	movs	r3, #2
 8001f70:	e12d      	b.n	80021ce <HAL_SPI_Transmit+0x27e>
 8001f72:	68fb      	ldr	r3, [r7, #12]
 8001f74:	2201      	movs	r2, #1
 8001f76:	f883 2050 	strb.w	r2, [r3, #80]	@ 0x50
 8001f7a:	f7ff f8bb 	bl	80010f4 <HAL_GetTick>
 8001f7e:	61b8      	str	r0, [r7, #24]
 8001f80:	88fb      	ldrh	r3, [r7, #6]
 8001f82:	82fb      	strh	r3, [r7, #22]
 8001f84:	68fb      	ldr	r3, [r7, #12]
 8001f86:	f893 3051 	ldrb.w	r3, [r3, #81]	@ 0x51
 8001f8a:	b2db      	uxtb	r3, r3
 8001f8c:	2b01      	cmp	r3, #1
 8001f8e:	d002      	beq.n	8001f96 <HAL_SPI_Transmit+0x46>
 8001f90:	2302      	movs	r3, #2
 8001f92:	77fb      	strb	r3, [r7, #31]
 8001f94:	e116      	b.n	80021c4 <HAL_SPI_Transmit+0x274>
 8001f96:	68bb      	ldr	r3, [r7, #8]
 8001f98:	2b00      	cmp	r3, #0
 8001f9a:	d002      	beq.n	8001fa2 <HAL_SPI_Transmit+0x52>
 8001f9c:	88fb      	ldrh	r3, [r7, #6]
 8001f9e:	2b00      	cmp	r3, #0
 8001fa0:	d102      	bne.n	8001fa8 <HAL_SPI_Transmit+0x58>
 8001fa2:	2301      	movs	r3, #1
 8001fa4:	77fb      	strb	r3, [r7, #31]
 8001fa6:	e10d      	b.n	80021c4 <HAL_SPI_Transmit+0x274>
 8001fa8:	68fb      	ldr	r3, [r7, #12]
 8001faa:	2203      	movs	r2, #3
 8001fac:	f883 2051 	strb.w	r2, [r3, #81]	@ 0x51
 8001fb0:	68fb      	ldr	r3, [r7, #12]
 8001fb2:	2200      	movs	r2, #0
 8001fb4:	655a      	str	r2, [r3, #84]	@ 0x54
 8001fb6:	68fb      	ldr	r3, [r7, #12]
 8001fb8:	68ba      	ldr	r2, [r7, #8]
 8001fba:	631a      	str	r2, [r3, #48]	@ 0x30
 8001fbc:	68fb      	ldr	r3, [r7, #12]
 8001fbe:	88fa      	ldrh	r2, [r7, #6]
 8001fc0:	869a      	strh	r2, [r3, #52]	@ 0x34
 8001fc2:	68fb      	ldr	r3, [r7, #12]
 8001fc4:	88fa      	ldrh	r2, [r7, #6]
 8001fc6:	86da      	strh	r2, [r3, #54]	@ 0x36
 8001fc8:	68fb      	ldr	r3, [r7, #12]
 8001fca:	2200      	movs	r2, #0
 8001fcc:	639a      	str	r2, [r3, #56]	@ 0x38
 8001fce:	68fb      	ldr	r3, [r7, #12]
 8001fd0:	2200      	movs	r2, #0
 8001fd2:	879a      	strh	r2, [r3, #60]	@ 0x3c
 8001fd4:	68fb      	ldr	r3, [r7, #12]
 8001fd6:	2200      	movs	r2, #0
 8001fd8:	87da      	strh	r2, [r3, #62]	@ 0x3e
 8001fda:	68fb      	ldr	r3, [r7, #12]
 8001fdc:	2200      	movs	r2, #0
 8001fde:	645a      	str	r2, [r3, #68]	@ 0x44
 8001fe0:	68fb      	ldr	r3, [r7, #12]
 8001fe2:	2200      	movs	r2, #0
 8001fe4:	641a      	str	r2, [r3, #64]	@ 0x40
 8001fe6:	68fb      	ldr	r3, [r7, #12]
 8001fe8:	689b      	ldr	r3, [r3, #8]
 8001fea:	f5b3 4f00 	cmp.w	r3, #32768	@ 0x8000
 8001fee:	d10f      	bne.n	8002010 <HAL_SPI_Transmit+0xc0>
 8001ff0:	68fb      	ldr	r3, [r7, #12]
 8001ff2:	681b      	ldr	r3, [r3, #0]
 8001ff4:	681a      	ldr	r2, [r3, #0]
 8001ff6:	68fb      	ldr	r3, [r7, #12]
 8001ff8:	681b      	ldr	r3, [r3, #0]
 8001ffa:	f022 0240 	bic.w	r2, r2, #64	@ 0x40
 8001ffe:	601a      	str	r2, [r3, #0]
 8002000:	68fb      	ldr	r3, [r7, #12]
 8002002:	681b      	ldr	r3, [r3, #0]
 8002004:	681a      	ldr	r2, [r3, #0]
 8002006:	68fb      	ldr	r3, [r7, #12]
 8002008:	681b      	ldr	r3, [r3, #0]
 800200a:	f442 4280 	orr.w	r2, r2, #16384	@ 0x4000
 800200e:	601a      	str	r2, [r3, #0]
 8002010:	68fb      	ldr	r3, [r7, #12]
 8002012:	681b      	ldr	r3, [r3, #0]
 8002014:	681b      	ldr	r3, [r3, #0]
 8002016:	f003 0340 	and.w	r3, r3, #64	@ 0x40
 800201a:	2b40      	cmp	r3, #64	@ 0x40
 800201c:	d007      	beq.n	800202e <HAL_SPI_Transmit+0xde>
 800201e:	68fb      	ldr	r3, [r7, #12]
 8002020:	681b      	ldr	r3, [r3, #0]
 8002022:	681a      	ldr	r2, [r3, #0]
 8002024:	68fb      	ldr	r3, [r7, #12]
 8002026:	681b      	ldr	r3, [r3, #0]
 8002028:	f042 0240 	orr.w	r2, r2, #64	@ 0x40
 800202c:	601a      	str	r2, [r3, #0]
 800202e:	68fb      	ldr	r3, [r7, #12]
 8002030:	68db      	ldr	r3, [r3, #12]
 8002032:	f5b3 6f00 	cmp.w	r3, #2048	@ 0x800
 8002036:	d14f      	bne.n	80020d8 <HAL_SPI_Transmit+0x188>
 8002038:	68fb      	ldr	r3, [r7, #12]
 800203a:	685b      	ldr	r3, [r3, #4]
 800203c:	2b00      	cmp	r3, #0
 800203e:	d002      	beq.n	8002046 <HAL_SPI_Transmit+0xf6>
 8002040:	8afb      	ldrh	r3, [r7, #22]
 8002042:	2b01      	cmp	r3, #1
 8002044:	d142      	bne.n	80020cc <HAL_SPI_Transmit+0x17c>
 8002046:	68fb      	ldr	r3, [r7, #12]
 8002048:	6b1b      	ldr	r3, [r3, #48]	@ 0x30
 800204a:	881a      	ldrh	r2, [r3, #0]
 800204c:	68fb      	ldr	r3, [r7, #12]
 800204e:	681b      	ldr	r3, [r3, #0]
 8002050:	60da      	str	r2, [r3, #12]
 8002052:	68fb      	ldr	r3, [r7, #12]
 8002054:	6b1b      	ldr	r3, [r3, #48]	@ 0x30
 8002056:	1c9a      	adds	r2, r3, #2
 8002058:	68fb      	ldr	r3, [r7, #12]
 800205a:	631a      	str	r2, [r3, #48]	@ 0x30
 800205c:	68fb      	ldr	r3, [r7, #12]
 800205e:	8edb      	ldrh	r3, [r3, #54]	@ 0x36
 8002060:	b29b      	uxth	r3, r3
 8002062:	3b01      	subs	r3, #1
 8002064:	b29a      	uxth	r2, r3
 8002066:	68fb      	ldr	r3, [r7, #12]
 8002068:	86da      	strh	r2, [r3, #54]	@ 0x36
 800206a:	e02f      	b.n	80020cc <HAL_SPI_Transmit+0x17c>
 800206c:	68fb      	ldr	r3, [r7, #12]
 800206e:	681b      	ldr	r3, [r3, #0]
 8002070:	689b      	ldr	r3, [r3, #8]
 8002072:	f003 0302 	and.w	r3, r3, #2
 8002076:	2b02      	cmp	r3, #2
 8002078:	d112      	bne.n	80020a0 <HAL_SPI_Transmit+0x150>
 800207a:	68fb      	ldr	r3, [r7, #12]
 800207c:	6b1b      	ldr	r3, [r3, #48]	@ 0x30
 800207e:	881a      	ldrh	r2, [r3, #0]
 8002080:	68fb      	ldr	r3, [r7, #12]
 8002082:	681b      	ldr	r3, [r3, #0]
 8002084:	60da      	str	r2, [r3, #12]
 8002086:	68fb      	ldr	r3, [r7, #12]
 8002088:	6b1b      	ldr	r3, [r3, #48]	@ 0x30
 800208a:	1c9a      	adds	r2, r3, #2
 800208c:	68fb      	ldr	r3, [r7, #12]
 800208e:	631a      	str	r2, [r3, #48]	@ 0x30
 8002090:	68fb      	ldr	r3, [r7, #12]
 8002092:	8edb      	ldrh	r3, [r3, #54]	@ 0x36
 8002094:	b29b      	uxth	r3, r3
 8002096:	3b01      	subs	r3, #1
 8002098:	b29a      	uxth	r2, r3
 800209a:	68fb      	ldr	r3, [r7, #12]
 800209c:	86da      	strh	r2, [r3, #54]	@ 0x36
 800209e:	e015      	b.n	80020cc <HAL_SPI_Transmit+0x17c>
 80020a0:	f7ff f828 	bl	80010f4 <HAL_GetTick>
 80020a4:	4602      	mov	r2, r0
 80020a6:	69bb      	ldr	r3, [r7, #24]
 80020a8:	1ad3      	subs	r3, r2, r3
 80020aa:	683a      	ldr	r2, [r7, #0]
 80020ac:	429a      	cmp	r2, r3
 80020ae:	d803      	bhi.n	80020b8 <HAL_SPI_Transmit+0x168>
 80020b0:	683b      	ldr	r3, [r7, #0]
 80020b2:	f1b3 3fff 	cmp.w	r3, #4294967295
 80020b6:	d102      	bne.n	80020be <HAL_SPI_Transmit+0x16e>
 80020b8:	683b      	ldr	r3, [r7, #0]
 80020ba:	2b00      	cmp	r3, #0
 80020bc:	d106      	bne.n	80020cc <HAL_SPI_Transmit+0x17c>
 80020be:	2303      	movs	r3, #3
 80020c0:	77fb      	strb	r3, [r7, #31]
 80020c2:	68fb      	ldr	r3, [r7, #12]
 80020c4:	2201      	movs	r2, #1
 80020c6:	f883 2051 	strb.w	r2, [r3, #81]	@ 0x51
 80020ca:	e07b      	b.n	80021c4 <HAL_SPI_Transmit+0x274>
 80020cc:	68fb      	ldr	r3, [r7, #12]
 80020ce:	8edb      	ldrh	r3, [r3, #54]	@ 0x36
 80020d0:	b29b      	uxth	r3, r3
 80020d2:	2b00      	cmp	r3, #0
 80020d4:	d1ca      	bne.n	800206c <HAL_SPI_Transmit+0x11c>
 80020d6:	e050      	b.n	800217a <HAL_SPI_Transmit+0x22a>
 80020d8:	68fb      	ldr	r3, [r7, #12]
 80020da:	685b      	ldr	r3, [r3, #4]
 80020dc:	2b00      	cmp	r3, #0
 80020de:	d002      	beq.n	80020e6 <HAL_SPI_Transmit+0x196>
 80020e0:	8afb      	ldrh	r3, [r7, #22]
 80020e2:	2b01      	cmp	r3, #1
 80020e4:	d144      	bne.n	8002170 <HAL_SPI_Transmit+0x220>
 80020e6:	68fb      	ldr	r3, [r7, #12]
 80020e8:	6b1a      	ldr	r2, [r3, #48]	@ 0x30
 80020ea:	68fb      	ldr	r3, [r7, #12]
 80020ec:	681b      	ldr	r3, [r3, #0]
 80020ee:	330c      	adds	r3, #12
 80020f0:	7812      	ldrb	r2, [r2, #0]
 80020f2:	701a      	strb	r2, [r3, #0]
 80020f4:	68fb      	ldr	r3, [r7, #12]
 80020f6:	6b1b      	ldr	r3, [r3, #48]	@ 0x30
 80020f8:	1c5a      	adds	r2, r3, #1
 80020fa:	68fb      	ldr	r3, [r7, #12]
 80020fc:	631a      	str	r2, [r3, #48]	@ 0x30
 80020fe:	68fb      	ldr	r3, [r7, #12]
 8002100:	8edb      	ldrh	r3, [r3, #54]	@ 0x36
 8002102:	b29b      	uxth	r3, r3
 8002104:	3b01      	subs	r3, #1
 8002106:	b29a      	uxth	r2, r3
 8002108:	68fb      	ldr	r3, [r7, #12]
 800210a:	86da      	strh	r2, [r3, #54]	@ 0x36
 800210c:	e030      	b.n	8002170 <HAL_SPI_Transmit+0x220>
 800210e:	68fb      	ldr	r3, [r7, #12]
 8002110:	681b      	ldr	r3, [r3, #0]
 8002112:	689b      	ldr	r3, [r3, #8]
 8002114:	f003 0302 	and.w	r3, r3, #2
 8002118:	2b02      	cmp	r3, #2
 800211a:	d113      	bne.n	8002144 <HAL_SPI_Transmit+0x1f4>
 800211c:	68fb      	ldr	r3, [r7, #12]
 800211e:	6b1a      	ldr	r2, [r3, #48]	@ 0x30
 8002120:	68fb      	ldr	r3, [r7, #12]
 8002122:	681b      	ldr	r3, [r3, #0]
 8002124:	330c      	adds	r3, #12
 8002126:	7812      	ldrb	r2, [r2, #0]
 8002128:	701a      	strb	r2, [r3, #0]
 800212a:	68fb      	ldr	r3, [r7, #12]
 800212c:	6b1b      	ldr	r3, [r3, #48]	@ 0x30
 800212e:	1c5a      	adds	r2, r3, #1
 8002130:	68fb      	ldr	r3, [r7, #12]
 8002132:	631a      	str	r2, [r3, #48]	@ 0x30
 8002134:	68fb      	ldr	r3, [r7, #12]
 8002136:	8edb      	ldrh	r3, [r3, #54]	@ 0x36
 8002138:	b29b      	uxth	r3, r3
 800213a:	3b01      	subs	r3, #1
 800213c:	b29a      	uxth	r2, r3
 800213e:	68fb      	ldr	r3, [r7, #12]
 8002140:	86da      	strh	r2, [r3, #54]	@ 0x36
 8002142:	e015      	b.n	8002170 <HAL_SPI_Transmit+0x220>
 8002144:	f7fe ffd6 	bl	80010f4 <HAL_GetTick>
 8002148:	4602      	mov	r2, r0
 800214a:	69bb      	ldr	r3, [r7, #24]
 800214c:	1ad3      	subs	r3, r2, r3
 800214e:	683a      	ldr	r2, [r7, #0]
 8002150:	429a      	cmp	r2, r3
 8002152:	d803      	bhi.n	800215c <HAL_SPI_Transmit+0x20c>
 8002154:	683b      	ldr	r3, [r7, #0]
 8002156:	f1b3 3fff 	cmp.w	r3, #4294967295
 800215a:	d102      	bne.n	8002162 <HAL_SPI_Transmit+0x212>
 800215c:	683b      	ldr	r3, [r7, #0]
 800215e:	2b00      	cmp	r3, #0
 8002160:	d106      	bne.n	8002170 <HAL_SPI_Transmit+0x220>
 8002162:	2303      	movs	r3, #3
 8002164:	77fb      	strb	r3, [r7, #31]
 8002166:	68fb      	ldr	r3, [r7, #12]
 8002168:	2201      	movs	r2, #1
 800216a:	f883 2051 	strb.w	r2, [r3, #81]	@ 0x51
 800216e:	e029      	b.n	80021c4 <HAL_SPI_Transmit+0x274>
 8002170:	68fb      	ldr	r3, [r7, #12]
 8002172:	8edb      	ldrh	r3, [r3, #54]	@ 0x36
 8002174:	b29b      	uxth	r3, r3
 8002176:	2b00      	cmp	r3, #0
 8002178:	d1c9      	bne.n	800210e <HAL_SPI_Transmit+0x1be>
 800217a:	69ba      	ldr	r2, [r7, #24]
 800217c:	6839      	ldr	r1, [r7, #0]
 800217e:	68f8      	ldr	r0, [r7, #12]
 8002180:	f000 f8b2 	bl	80022e8 <SPI_EndRxTxTransaction>
 8002184:	4603      	mov	r3, r0
 8002186:	2b00      	cmp	r3, #0
 8002188:	d002      	beq.n	8002190 <HAL_SPI_Transmit+0x240>
 800218a:	68fb      	ldr	r3, [r7, #12]
 800218c:	2220      	movs	r2, #32
 800218e:	655a      	str	r2, [r3, #84]	@ 0x54
 8002190:	68fb      	ldr	r3, [r7, #12]
 8002192:	689b      	ldr	r3, [r3, #8]
 8002194:	2b00      	cmp	r3, #0
 8002196:	d10a      	bne.n	80021ae <HAL_SPI_Transmit+0x25e>
 8002198:	2300      	movs	r3, #0
 800219a:	613b      	str	r3, [r7, #16]
 800219c:	68fb      	ldr	r3, [r7, #12]
 800219e:	681b      	ldr	r3, [r3, #0]
 80021a0:	68db      	ldr	r3, [r3, #12]
 80021a2:	613b      	str	r3, [r7, #16]
 80021a4:	68fb      	ldr	r3, [r7, #12]
 80021a6:	681b      	ldr	r3, [r3, #0]
 80021a8:	689b      	ldr	r3, [r3, #8]
 80021aa:	613b      	str	r3, [r7, #16]
 80021ac:	693b      	ldr	r3, [r7, #16]
 80021ae:	68fb      	ldr	r3, [r7, #12]
 80021b0:	6d5b      	ldr	r3, [r3, #84]	@ 0x54
 80021b2:	2b00      	cmp	r3, #0
 80021b4:	d002      	beq.n	80021bc <HAL_SPI_Transmit+0x26c>
 80021b6:	2301      	movs	r3, #1
 80021b8:	77fb      	strb	r3, [r7, #31]
 80021ba:	e003      	b.n	80021c4 <HAL_SPI_Transmit+0x274>
 80021bc:	68fb      	ldr	r3, [r7, #12]
 80021be:	2201      	movs	r2, #1
 80021c0:	f883 2051 	strb.w	r2, [r3, #81]	@ 0x51
 80021c4:	68fb      	ldr	r3, [r7, #12]
 80021c6:	2200      	movs	r2, #0
 80021c8:	f883 2050 	strb.w	r2, [r3, #80]	@ 0x50
 80021cc:	7ffb      	ldrb	r3, [r7, #31]
 80021ce:	4618      	mov	r0, r3
 80021d0:	3720      	adds	r7, #32
 80021d2:	46bd      	mov	sp, r7
 80021d4:	bd80      	pop	{r7, pc}
	...

080021d8 <SPI_WaitFlagStateUntilTimeout>:
 80021d8:	b580      	push	{r7, lr}
 80021da:	b088      	sub	sp, #32
 80021dc:	af00      	add	r7, sp, #0
 80021de:	60f8      	str	r0, [r7, #12]
 80021e0:	60b9      	str	r1, [r7, #8]
 80021e2:	603b      	str	r3, [r7, #0]
 80021e4:	4613      	mov	r3, r2
 80021e6:	71fb      	strb	r3, [r7, #7]
 80021e8:	f7fe ff84 	bl	80010f4 <HAL_GetTick>
 80021ec:	4602      	mov	r2, r0
 80021ee:	6abb      	ldr	r3, [r7, #40]	@ 0x28
 80021f0:	1a9b      	subs	r3, r3, r2
 80021f2:	683a      	ldr	r2, [r7, #0]
 80021f4:	4413      	add	r3, r2
 80021f6:	61fb      	str	r3, [r7, #28]
 80021f8:	f7fe ff7c 	bl	80010f4 <HAL_GetTick>
 80021fc:	61b8      	str	r0, [r7, #24]
 80021fe:	4b39      	ldr	r3, [pc, #228]	@ (80022e4 <SPI_WaitFlagStateUntilTimeout+0x10c>)
 8002200:	681b      	ldr	r3, [r3, #0]
 8002202:	015b      	lsls	r3, r3, #5
 8002204:	0d1b      	lsrs	r3, r3, #20
 8002206:	69fa      	ldr	r2, [r7, #28]
 8002208:	fb02 f303 	mul.w	r3, r2, r3
 800220c:	617b      	str	r3, [r7, #20]
 800220e:	e054      	b.n	80022ba <SPI_WaitFlagStateUntilTimeout+0xe2>
 8002210:	683b      	ldr	r3, [r7, #0]
 8002212:	f1b3 3fff 	cmp.w	r3, #4294967295
 8002216:	d050      	beq.n	80022ba <SPI_WaitFlagStateUntilTimeout+0xe2>
 8002218:	f7fe ff6c 	bl	80010f4 <HAL_GetTick>
 800221c:	4602      	mov	r2, r0
 800221e:	69bb      	ldr	r3, [r7, #24]
 8002220:	1ad3      	subs	r3, r2, r3
 8002222:	69fa      	ldr	r2, [r7, #28]
 8002224:	429a      	cmp	r2, r3
 8002226:	d902      	bls.n	800222e <SPI_WaitFlagStateUntilTimeout+0x56>
 8002228:	69fb      	ldr	r3, [r7, #28]
 800222a:	2b00      	cmp	r3, #0
 800222c:	d13d      	bne.n	80022aa <SPI_WaitFlagStateUntilTimeout+0xd2>
 800222e:	68fb      	ldr	r3, [r7, #12]
 8002230:	681b      	ldr	r3, [r3, #0]
 8002232:	685a      	ldr	r2, [r3, #4]
 8002234:	68fb      	ldr	r3, [r7, #12]
 8002236:	681b      	ldr	r3, [r3, #0]
 8002238:	f022 02e0 	bic.w	r2, r2, #224	@ 0xe0
 800223c:	605a      	str	r2, [r3, #4]
 800223e:	68fb      	ldr	r3, [r7, #12]
 8002240:	685b      	ldr	r3, [r3, #4]
 8002242:	f5b3 7f82 	cmp.w	r3, #260	@ 0x104
 8002246:	d111      	bne.n	800226c <SPI_WaitFlagStateUntilTimeout+0x94>
 8002248:	68fb      	ldr	r3, [r7, #12]
 800224a:	689b      	ldr	r3, [r3, #8]
 800224c:	f5b3 4f00 	cmp.w	r3, #32768	@ 0x8000
 8002250:	d004      	beq.n	800225c <SPI_WaitFlagStateUntilTimeout+0x84>
 8002252:	68fb      	ldr	r3, [r7, #12]
 8002254:	689b      	ldr	r3, [r3, #8]
 8002256:	f5b3 6f80 	cmp.w	r3, #1024	@ 0x400
 800225a:	d107      	bne.n	800226c <SPI_WaitFlagStateUntilTimeout+0x94>
 800225c:	68fb      	ldr	r3, [r7, #12]
 800225e:	681b      	ldr	r3, [r3, #0]
 8002260:	681a      	ldr	r2, [r3, #0]
 8002262:	68fb      	ldr	r3, [r7, #12]
 8002264:	681b      	ldr	r3, [r3, #0]
 8002266:	f022 0240 	bic.w	r2, r2, #64	@ 0x40
 800226a:	601a      	str	r2, [r3, #0]
 800226c:	68fb      	ldr	r3, [r7, #12]
 800226e:	6a9b      	ldr	r3, [r3, #40]	@ 0x28
 8002270:	f5b3 5f00 	cmp.w	r3, #8192	@ 0x2000
 8002274:	d10f      	bne.n	8002296 <SPI_WaitFlagStateUntilTimeout+0xbe>
 8002276:	68fb      	ldr	r3, [r7, #12]
 8002278:	681b      	ldr	r3, [r3, #0]
 800227a:	681a      	ldr	r2, [r3, #0]
 800227c:	68fb      	ldr	r3, [r7, #12]
 800227e:	681b      	ldr	r3, [r3, #0]
 8002280:	f422 5200 	bic.w	r2, r2, #8192	@ 0x2000
 8002284:	601a      	str	r2, [r3, #0]
 8002286:	68fb      	ldr	r3, [r7, #12]
 8002288:	681b      	ldr	r3, [r3, #0]
 800228a:	681a      	ldr	r2, [r3, #0]
 800228c:	68fb      	ldr	r3, [r7, #12]
 800228e:	681b      	ldr	r3, [r3, #0]
 8002290:	f442 5200 	orr.w	r2, r2, #8192	@ 0x2000
 8002294:	601a      	str	r2, [r3, #0]
 8002296:	68fb      	ldr	r3, [r7, #12]
 8002298:	2201      	movs	r2, #1
 800229a:	f883 2051 	strb.w	r2, [r3, #81]	@ 0x51
 800229e:	68fb      	ldr	r3, [r7, #12]
 80022a0:	2200      	movs	r2, #0
 80022a2:	f883 2050 	strb.w	r2, [r3, #80]	@ 0x50
 80022a6:	2303      	movs	r3, #3
 80022a8:	e017      	b.n	80022da <SPI_WaitFlagStateUntilTimeout+0x102>
 80022aa:	697b      	ldr	r3, [r7, #20]
 80022ac:	2b00      	cmp	r3, #0
 80022ae:	d101      	bne.n	80022b4 <SPI_WaitFlagStateUntilTimeout+0xdc>
 80022b0:	2300      	movs	r3, #0
 80022b2:	61fb      	str	r3, [r7, #28]
 80022b4:	697b      	ldr	r3, [r7, #20]
 80022b6:	3b01      	subs	r3, #1
 80022b8:	617b      	str	r3, [r7, #20]
 80022ba:	68fb      	ldr	r3, [r7, #12]
 80022bc:	681b      	ldr	r3, [r3, #0]
 80022be:	689a      	ldr	r2, [r3, #8]
 80022c0:	68bb      	ldr	r3, [r7, #8]
 80022c2:	4013      	ands	r3, r2
 80022c4:	68ba      	ldr	r2, [r7, #8]
 80022c6:	429a      	cmp	r2, r3
 80022c8:	bf0c      	ite	eq
 80022ca:	2301      	moveq	r3, #1
 80022cc:	2300      	movne	r3, #0
 80022ce:	b2db      	uxtb	r3, r3
 80022d0:	461a      	mov	r2, r3
 80022d2:	79fb      	ldrb	r3, [r7, #7]
 80022d4:	429a      	cmp	r2, r3
 80022d6:	d19b      	bne.n	8002210 <SPI_WaitFlagStateUntilTimeout+0x38>
 80022d8:	2300      	movs	r3, #0
 80022da:	4618      	mov	r0, r3
 80022dc:	3720      	adds	r7, #32
 80022de:	46bd      	mov	sp, r7
 80022e0:	bd80      	pop	{r7, pc}
 80022e2:	bf00      	nop
 80022e4:	20000024 	.word	0x20000024

080022e8 <SPI_EndRxTxTransaction>:
 80022e8:	b580      	push	{r7, lr}
 80022ea:	b086      	sub	sp, #24
 80022ec:	af02      	add	r7, sp, #8
 80022ee:	60f8      	str	r0, [r7, #12]
 80022f0:	60b9      	str	r1, [r7, #8]
 80022f2:	607a      	str	r2, [r7, #4]
 80022f4:	687b      	ldr	r3, [r7, #4]
 80022f6:	9300      	str	r3, [sp, #0]
 80022f8:	68bb      	ldr	r3, [r7, #8]
 80022fa:	2200      	movs	r2, #0
 80022fc:	2180      	movs	r1, #128	@ 0x80
 80022fe:	68f8      	ldr	r0, [r7, #12]
 8002300:	f7ff ff6a 	bl	80021d8 <SPI_WaitFlagStateUntilTimeout>
 8002304:	4603      	mov	r3, r0
 8002306:	2b00      	cmp	r3, #0
 8002308:	d007      	beq.n	800231a <SPI_EndRxTxTransaction+0x32>
 800230a:	68fb      	ldr	r3, [r7, #12]
 800230c:	6d5b      	ldr	r3, [r3, #84]	@ 0x54
 800230e:	f043 0220 	orr.w	r2, r3, #32
 8002312:	68fb      	ldr	r3, [r7, #12]
 8002314:	655a      	str	r2, [r3, #84]	@ 0x54
 8002316:	2303      	movs	r3, #3
 8002318:	e000      	b.n	800231c <SPI_EndRxTxTransaction+0x34>
 800231a:	2300      	movs	r3, #0
 800231c:	4618      	mov	r0, r3
 800231e:	3710      	adds	r7, #16
 8002320:	46bd      	mov	sp, r7
 8002322:	bd80      	pop	{r7, pc}

08002324 <HAL_TIM_Base_Init>:
 8002324:	b580      	push	{r7, lr}
 8002326:	b082      	sub	sp, #8
 8002328:	af00      	add	r7, sp, #0
 800232a:	6078      	str	r0, [r7, #4]
 800232c:	687b      	ldr	r3, [r7, #4]
 800232e:	2b00      	cmp	r3, #0
 8002330:	d101      	bne.n	8002336 <HAL_TIM_Base_Init+0x12>
 8002332:	2301      	movs	r3, #1
 8002334:	e041      	b.n	80023ba <HAL_TIM_Base_Init+0x96>
 8002336:	687b      	ldr	r3, [r7, #4]
 8002338:	f893 303d 	ldrb.w	r3, [r3, #61]	@ 0x3d
 800233c:	b2db      	uxtb	r3, r3
 800233e:	2b00      	cmp	r3, #0
 8002340:	d106      	bne.n	8002350 <HAL_TIM_Base_Init+0x2c>
 8002342:	687b      	ldr	r3, [r7, #4]
 8002344:	2200      	movs	r2, #0
 8002346:	f883 203c 	strb.w	r2, [r3, #60]	@ 0x3c
 800234a:	6878      	ldr	r0, [r7, #4]
 800234c:	f7fe fdac 	bl	8000ea8 <HAL_TIM_Base_MspInit>
 8002350:	687b      	ldr	r3, [r7, #4]
 8002352:	2202      	movs	r2, #2
 8002354:	f883 203d 	strb.w	r2, [r3, #61]	@ 0x3d
 8002358:	687b      	ldr	r3, [r7, #4]
 800235a:	681a      	ldr	r2, [r3, #0]
 800235c:	687b      	ldr	r3, [r7, #4]
 800235e:	3304      	adds	r3, #4
 8002360:	4619      	mov	r1, r3
 8002362:	4610      	mov	r0, r2
 8002364:	f000 fa74 	bl	8002850 <TIM_Base_SetConfig>
 8002368:	687b      	ldr	r3, [r7, #4]
 800236a:	2201      	movs	r2, #1
 800236c:	f883 2046 	strb.w	r2, [r3, #70]	@ 0x46
 8002370:	687b      	ldr	r3, [r7, #4]
 8002372:	2201      	movs	r2, #1
 8002374:	f883 203e 	strb.w	r2, [r3, #62]	@ 0x3e
 8002378:	687b      	ldr	r3, [r7, #4]
 800237a:	2201      	movs	r2, #1
 800237c:	f883 203f 	strb.w	r2, [r3, #63]	@ 0x3f
 8002380:	687b      	ldr	r3, [r7, #4]
 8002382:	2201      	movs	r2, #1
 8002384:	f883 2040 	strb.w	r2, [r3, #64]	@ 0x40
 8002388:	687b      	ldr	r3, [r7, #4]
 800238a:	2201      	movs	r2, #1
 800238c:	f883 2041 	strb.w	r2, [r3, #65]	@ 0x41
 8002390:	687b      	ldr	r3, [r7, #4]
 8002392:	2201      	movs	r2, #1
 8002394:	f883 2042 	strb.w	r2, [r3, #66]	@ 0x42
 8002398:	687b      	ldr	r3, [r7, #4]
 800239a:	2201      	movs	r2, #1
 800239c:	f883 2043 	strb.w	r2, [r3, #67]	@ 0x43
 80023a0:	687b      	ldr	r3, [r7, #4]
 80023a2:	2201      	movs	r2, #1
 80023a4:	f883 2044 	strb.w	r2, [r3, #68]	@ 0x44
 80023a8:	687b      	ldr	r3, [r7, #4]
 80023aa:	2201      	movs	r2, #1
 80023ac:	f883 2045 	strb.w	r2, [r3, #69]	@ 0x45
 80023b0:	687b      	ldr	r3, [r7, #4]
 80023b2:	2201      	movs	r2, #1
 80023b4:	f883 203d 	strb.w	r2, [r3, #61]	@ 0x3d
 80023b8:	2300      	movs	r3, #0
 80023ba:	4618      	mov	r0, r3
 80023bc:	3708      	adds	r7, #8
 80023be:	46bd      	mov	sp, r7
 80023c0:	bd80      	pop	{r7, pc}
	...

080023c4 <HAL_TIM_Base_Start_IT>:
 80023c4:	b480      	push	{r7}
 80023c6:	b085      	sub	sp, #20
 80023c8:	af00      	add	r7, sp, #0
 80023ca:	6078      	str	r0, [r7, #4]
 80023cc:	687b      	ldr	r3, [r7, #4]
 80023ce:	f893 303d 	ldrb.w	r3, [r3, #61]	@ 0x3d
 80023d2:	b2db      	uxtb	r3, r3
 80023d4:	2b01      	cmp	r3, #1
 80023d6:	d001      	beq.n	80023dc <HAL_TIM_Base_Start_IT+0x18>
 80023d8:	2301      	movs	r3, #1
 80023da:	e03a      	b.n	8002452 <HAL_TIM_Base_Start_IT+0x8e>
 80023dc:	687b      	ldr	r3, [r7, #4]
 80023de:	2202      	movs	r2, #2
 80023e0:	f883 203d 	strb.w	r2, [r3, #61]	@ 0x3d
 80023e4:	687b      	ldr	r3, [r7, #4]
 80023e6:	681b      	ldr	r3, [r3, #0]
 80023e8:	68da      	ldr	r2, [r3, #12]
 80023ea:	687b      	ldr	r3, [r7, #4]
 80023ec:	681b      	ldr	r3, [r3, #0]
 80023ee:	f042 0201 	orr.w	r2, r2, #1
 80023f2:	60da      	str	r2, [r3, #12]
 80023f4:	687b      	ldr	r3, [r7, #4]
 80023f6:	681b      	ldr	r3, [r3, #0]
 80023f8:	4a18      	ldr	r2, [pc, #96]	@ (800245c <HAL_TIM_Base_Start_IT+0x98>)
 80023fa:	4293      	cmp	r3, r2
 80023fc:	d00e      	beq.n	800241c <HAL_TIM_Base_Start_IT+0x58>
 80023fe:	687b      	ldr	r3, [r7, #4]
 8002400:	681b      	ldr	r3, [r3, #0]
 8002402:	f1b3 4f80 	cmp.w	r3, #1073741824	@ 0x40000000
 8002406:	d009      	beq.n	800241c <HAL_TIM_Base_Start_IT+0x58>
 8002408:	687b      	ldr	r3, [r7, #4]
 800240a:	681b      	ldr	r3, [r3, #0]
 800240c:	4a14      	ldr	r2, [pc, #80]	@ (8002460 <HAL_TIM_Base_Start_IT+0x9c>)
 800240e:	4293      	cmp	r3, r2
 8002410:	d004      	beq.n	800241c <HAL_TIM_Base_Start_IT+0x58>
 8002412:	687b      	ldr	r3, [r7, #4]
 8002414:	681b      	ldr	r3, [r3, #0]
 8002416:	4a13      	ldr	r2, [pc, #76]	@ (8002464 <HAL_TIM_Base_Start_IT+0xa0>)
 8002418:	4293      	cmp	r3, r2
 800241a:	d111      	bne.n	8002440 <HAL_TIM_Base_Start_IT+0x7c>
 800241c:	687b      	ldr	r3, [r7, #4]
 800241e:	681b      	ldr	r3, [r3, #0]
 8002420:	689b      	ldr	r3, [r3, #8]
 8002422:	f003 0307 	and.w	r3, r3, #7
 8002426:	60fb      	str	r3, [r7, #12]
 8002428:	68fb      	ldr	r3, [r7, #12]
 800242a:	2b06      	cmp	r3, #6
 800242c:	d010      	beq.n	8002450 <HAL_TIM_Base_Start_IT+0x8c>
 800242e:	687b      	ldr	r3, [r7, #4]
 8002430:	681b      	ldr	r3, [r3, #0]
 8002432:	681a      	ldr	r2, [r3, #0]
 8002434:	687b      	ldr	r3, [r7, #4]
 8002436:	681b      	ldr	r3, [r3, #0]
 8002438:	f042 0201 	orr.w	r2, r2, #1
 800243c:	601a      	str	r2, [r3, #0]
 800243e:	e007      	b.n	8002450 <HAL_TIM_Base_Start_IT+0x8c>
 8002440:	687b      	ldr	r3, [r7, #4]
 8002442:	681b      	ldr	r3, [r3, #0]
 8002444:	681a      	ldr	r2, [r3, #0]
 8002446:	687b      	ldr	r3, [r7, #4]
 8002448:	681b      	ldr	r3, [r3, #0]
 800244a:	f042 0201 	orr.w	r2, r2, #1
 800244e:	601a      	str	r2, [r3, #0]
 8002450:	2300      	movs	r3, #0
 8002452:	4618      	mov	r0, r3
 8002454:	3714      	adds	r7, #20
 8002456:	46bd      	mov	sp, r7
 8002458:	bc80      	pop	{r7}
 800245a:	4770      	bx	lr
 800245c:	40012c00 	.word	0x40012c00
 8002460:	40000400 	.word	0x40000400
 8002464:	40000800 	.word	0x40000800

08002468 <HAL_TIM_IRQHandler>:
 8002468:	b580      	push	{r7, lr}
 800246a:	b082      	sub	sp, #8
 800246c:	af00      	add	r7, sp, #0
 800246e:	6078      	str	r0, [r7, #4]
 8002470:	687b      	ldr	r3, [r7, #4]
 8002472:	681b      	ldr	r3, [r3, #0]
 8002474:	691b      	ldr	r3, [r3, #16]
 8002476:	f003 0302 	and.w	r3, r3, #2
 800247a:	2b02      	cmp	r3, #2
 800247c:	d122      	bne.n	80024c4 <HAL_TIM_IRQHandler+0x5c>
 800247e:	687b      	ldr	r3, [r7, #4]
 8002480:	681b      	ldr	r3, [r3, #0]
 8002482:	68db      	ldr	r3, [r3, #12]
 8002484:	f003 0302 	and.w	r3, r3, #2
 8002488:	2b02      	cmp	r3, #2
 800248a:	d11b      	bne.n	80024c4 <HAL_TIM_IRQHandler+0x5c>
 800248c:	687b      	ldr	r3, [r7, #4]
 800248e:	681b      	ldr	r3, [r3, #0]
 8002490:	f06f 0202 	mvn.w	r2, #2
 8002494:	611a      	str	r2, [r3, #16]
 8002496:	687b      	ldr	r3, [r7, #4]
 8002498:	2201      	movs	r2, #1
 800249a:	771a      	strb	r2, [r3, #28]
 800249c:	687b      	ldr	r3, [r7, #4]
 800249e:	681b      	ldr	r3, [r3, #0]
 80024a0:	699b      	ldr	r3, [r3, #24]
 80024a2:	f003 0303 	and.w	r3, r3, #3
 80024a6:	2b00      	cmp	r3, #0
 80024a8:	d003      	beq.n	80024b2 <HAL_TIM_IRQHandler+0x4a>
 80024aa:	6878      	ldr	r0, [r7, #4]
 80024ac:	f000 f9b4 	bl	8002818 <HAL_TIM_IC_CaptureCallback>
 80024b0:	e005      	b.n	80024be <HAL_TIM_IRQHandler+0x56>
 80024b2:	6878      	ldr	r0, [r7, #4]
 80024b4:	f000 f9a7 	bl	8002806 <HAL_TIM_OC_DelayElapsedCallback>
 80024b8:	6878      	ldr	r0, [r7, #4]
 80024ba:	f000 f9b6 	bl	800282a <HAL_TIM_PWM_PulseFinishedCallback>
 80024be:	687b      	ldr	r3, [r7, #4]
 80024c0:	2200      	movs	r2, #0
 80024c2:	771a      	strb	r2, [r3, #28]
 80024c4:	687b      	ldr	r3, [r7, #4]
 80024c6:	681b      	ldr	r3, [r3, #0]
 80024c8:	691b      	ldr	r3, [r3, #16]
 80024ca:	f003 0304 	and.w	r3, r3, #4
 80024ce:	2b04      	cmp	r3, #4
 80024d0:	d122      	bne.n	8002518 <HAL_TIM_IRQHandler+0xb0>
 80024d2:	687b      	ldr	r3, [r7, #4]
 80024d4:	681b      	ldr	r3, [r3, #0]
 80024d6:	68db      	ldr	r3, [r3, #12]
 80024d8:	f003 0304 	and.w	r3, r3, #4
 80024dc:	2b04      	cmp	r3, #4
 80024de:	d11b      	bne.n	8002518 <HAL_TIM_IRQHandler+0xb0>
 80024e0:	687b      	ldr	r3, [r7, #4]
 80024e2:	681b      	ldr	r3, [r3, #0]
 80024e4:	f06f 0204 	mvn.w	r2, #4
 80024e8:	611a      	str	r2, [r3, #16]
 80024ea:	687b      	ldr	r3, [r7, #4]
 80024ec:	2202      	movs	r2, #2
 80024ee:	771a      	strb	r2, [r3, #28]
 80024f0:	687b      	ldr	r3, [r7, #4]
 80024f2:	681b      	ldr	r3, [r3, #0]
 80024f4:	699b      	ldr	r3, [r3, #24]
 80024f6:	f403 7340 	and.w	r3, r3, #768	@ 0x300
 80024fa:	2b00      	cmp	r3, #0
 80024fc:	d003      	beq.n	8002506 <HAL_TIM_IRQHandler+0x9e>
 80024fe:	6878      	ldr	r0, [r7, #4]
 8002500:	f000 f98a 	bl	8002818 <HAL_TIM_IC_CaptureCallback>
 8002504:	e005      	b.n	8002512 <HAL_TIM_IRQHandler+0xaa>
 8002506:	6878      	ldr	r0, [r7, #4]
 8002508:	f000 f97d 	bl	8002806 <HAL_TIM_OC_DelayElapsedCallback>
 800250c:	6878      	ldr	r0, [r7, #4]
 800250e:	f000 f98c 	bl	800282a <HAL_TIM_PWM_PulseFinishedCallback>
 8002512:	687b      	ldr	r3, [r7, #4]
 8002514:	2200      	movs	r2, #0
 8002516:	771a      	strb	r2, [r3, #28]
 8002518:	687b      	ldr	r3, [r7, #4]
 800251a:	681b      	ldr	r3, [r3, #0]
 800251c:	691b      	ldr	r3, [r3, #16]
 800251e:	f003 0308 	and.w	r3, r3, #8
 8002522:	2b08      	cmp	r3, #8
 8002524:	d122      	bne.n	800256c <HAL_TIM_IRQHandler+0x104>
 8002526:	687b      	ldr	r3, [r7, #4]
 8002528:	681b      	ldr	r3, [r3, #0]
 800252a:	68db      	ldr	r3, [r3, #12]
 800252c:	f003 0308 	and.w	r3, r3, #8
 8002530:	2b08      	cmp	r3, #8
 8002532:	d11b      	bne.n	800256c <HAL_TIM_IRQHandler+0x104>
 8002534:	687b      	ldr	r3, [r7, #4]
 8002536:	681b      	ldr	r3, [r3, #0]
 8002538:	f06f 0208 	mvn.w	r2, #8
 800253c:	611a      	str	r2, [r3, #16]
 800253e:	687b      	ldr	r3, [r7, #4]
 8002540:	2204      	movs	r2, #4
 8002542:	771a      	strb	r2, [r3, #28]
 8002544:	687b      	ldr	r3, [r7, #4]
 8002546:	681b      	ldr	r3, [r3, #0]
 8002548:	69db      	ldr	r3, [r3, #28]
 800254a:	f003 0303 	and.w	r3, r3, #3
 800254e:	2b00      	cmp	r3, #0
 8002550:	d003      	beq.n	800255a <HAL_TIM_IRQHandler+0xf2>
 8002552:	6878      	ldr	r0, [r7, #4]
 8002554:	f000 f960 	bl	8002818 <HAL_TIM_IC_CaptureCallback>
 8002558:	e005      	b.n	8002566 <HAL_TIM_IRQHandler+0xfe>
 800255a:	6878      	ldr	r0, [r7, #4]
 800255c:	f000 f953 	bl	8002806 <HAL_TIM_OC_DelayElapsedCallback>
 8002560:	6878      	ldr	r0, [r7, #4]
 8002562:	f000 f962 	bl	800282a <HAL_TIM_PWM_PulseFinishedCallback>
 8002566:	687b      	ldr	r3, [r7, #4]
 8002568:	2200      	movs	r2, #0
 800256a:	771a      	strb	r2, [r3, #28]
 800256c:	687b      	ldr	r3, [r7, #4]
 800256e:	681b      	ldr	r3, [r3, #0]
 8002570:	691b      	ldr	r3, [r3, #16]
 8002572:	f003 0310 	and.w	r3, r3, #16
 8002576:	2b10      	cmp	r3, #16
 8002578:	d122      	bne.n	80025c0 <HAL_TIM_IRQHandler+0x158>
 800257a:	687b      	ldr	r3, [r7, #4]
 800257c:	681b      	ldr	r3, [r3, #0]
 800257e:	68db      	ldr	r3, [r3, #12]
 8002580:	f003 0310 	and.w	r3, r3, #16
 8002584:	2b10      	cmp	r3, #16
 8002586:	d11b      	bne.n	80025c0 <HAL_TIM_IRQHandler+0x158>
 8002588:	687b      	ldr	r3, [r7, #4]
 800258a:	681b      	ldr	r3, [r3, #0]
 800258c:	f06f 0210 	mvn.w	r2, #16
 8002590:	611a      	str	r2, [r3, #16]
 8002592:	687b      	ldr	r3, [r7, #4]
 8002594:	2208      	movs	r2, #8
 8002596:	771a      	strb	r2, [r3, #28]
 8002598:	687b      	ldr	r3, [r7, #4]
 800259a:	681b      	ldr	r3, [r3, #0]
 800259c:	69db      	ldr	r3, [r3, #28]
 800259e:	f403 7340 	and.w	r3, r3, #768	@ 0x300
 80025a2:	2b00      	cmp	r3, #0
 80025a4:	d003      	beq.n	80025ae <HAL_TIM_IRQHandler+0x146>
 80025a6:	6878      	ldr	r0, [r7, #4]
 80025a8:	f000 f936 	bl	8002818 <HAL_TIM_IC_CaptureCallback>
 80025ac:	e005      	b.n	80025ba <HAL_TIM_IRQHandler+0x152>
 80025ae:	6878      	ldr	r0, [r7, #4]
 80025b0:	f000 f929 	bl	8002806 <HAL_TIM_OC_DelayElapsedCallback>
 80025b4:	6878      	ldr	r0, [r7, #4]
 80025b6:	f000 f938 	bl	800282a <HAL_TIM_PWM_PulseFinishedCallback>
 80025ba:	687b      	ldr	r3, [r7, #4]
 80025bc:	2200      	movs	r2, #0
 80025be:	771a      	strb	r2, [r3, #28]
 80025c0:	687b      	ldr	r3, [r7, #4]
 80025c2:	681b      	ldr	r3, [r3, #0]
 80025c4:	691b      	ldr	r3, [r3, #16]
 80025c6:	f003 0301 	and.w	r3, r3, #1
 80025ca:	2b01      	cmp	r3, #1
 80025cc:	d10e      	bne.n	80025ec <HAL_TIM_IRQHandler+0x184>
 80025ce:	687b      	ldr	r3, [r7, #4]
 80025d0:	681b      	ldr	r3, [r3, #0]
 80025d2:	68db      	ldr	r3, [r3, #12]
 80025d4:	f003 0301 	and.w	r3, r3, #1
 80025d8:	2b01      	cmp	r3, #1
 80025da:	d107      	bne.n	80025ec <HAL_TIM_IRQHandler+0x184>
 80025dc:	687b      	ldr	r3, [r7, #4]
 80025de:	681b      	ldr	r3, [r3, #0]
 80025e0:	f06f 0201 	mvn.w	r2, #1
 80025e4:	611a      	str	r2, [r3, #16]
 80025e6:	6878      	ldr	r0, [r7, #4]
 80025e8:	f7fe fbae 	bl	8000d48 <HAL_TIM_PeriodElapsedCallback>
 80025ec:	687b      	ldr	r3, [r7, #4]
 80025ee:	681b      	ldr	r3, [r3, #0]
 80025f0:	691b      	ldr	r3, [r3, #16]
 80025f2:	f003 0380 	and.w	r3, r3, #128	@ 0x80
 80025f6:	2b80      	cmp	r3, #128	@ 0x80
 80025f8:	d10e      	bne.n	8002618 <HAL_TIM_IRQHandler+0x1b0>
 80025fa:	687b      	ldr	r3, [r7, #4]
 80025fc:	681b      	ldr	r3, [r3, #0]
 80025fe:	68db      	ldr	r3, [r3, #12]
 8002600:	f003 0380 	and.w	r3, r3, #128	@ 0x80
 8002604:	2b80      	cmp	r3, #128	@ 0x80
 8002606:	d107      	bne.n	8002618 <HAL_TIM_IRQHandler+0x1b0>
 8002608:	687b      	ldr	r3, [r7, #4]
 800260a:	681b      	ldr	r3, [r3, #0]
 800260c:	f06f 0280 	mvn.w	r2, #128	@ 0x80
 8002610:	611a      	str	r2, [r3, #16]
 8002612:	6878      	ldr	r0, [r7, #4]
 8002614:	f000 fa7b 	bl	8002b0e <HAL_TIMEx_BreakCallback>
 8002618:	687b      	ldr	r3, [r7, #4]
 800261a:	681b      	ldr	r3, [r3, #0]
 800261c:	691b      	ldr	r3, [r3, #16]
 800261e:	f003 0340 	and.w	r3, r3, #64	@ 0x40
 8002622:	2b40      	cmp	r3, #64	@ 0x40
 8002624:	d10e      	bne.n	8002644 <HAL_TIM_IRQHandler+0x1dc>
 8002626:	687b      	ldr	r3, [r7, #4]
 8002628:	681b      	ldr	r3, [r3, #0]
 800262a:	68db      	ldr	r3, [r3, #12]
 800262c:	f003 0340 	and.w	r3, r3, #64	@ 0x40
 8002630:	2b40      	cmp	r3, #64	@ 0x40
 8002632:	d107      	bne.n	8002644 <HAL_TIM_IRQHandler+0x1dc>
 8002634:	687b      	ldr	r3, [r7, #4]
 8002636:	681b      	ldr	r3, [r3, #0]
 8002638:	f06f 0240 	mvn.w	r2, #64	@ 0x40
 800263c:	611a      	str	r2, [r3, #16]
 800263e:	6878      	ldr	r0, [r7, #4]
 8002640:	f000 f8fc 	bl	800283c <HAL_TIM_TriggerCallback>
 8002644:	687b      	ldr	r3, [r7, #4]
 8002646:	681b      	ldr	r3, [r3, #0]
 8002648:	691b      	ldr	r3, [r3, #16]
 800264a:	f003 0320 	and.w	r3, r3, #32
 800264e:	2b20      	cmp	r3, #32
 8002650:	d10e      	bne.n	8002670 <HAL_TIM_IRQHandler+0x208>
 8002652:	687b      	ldr	r3, [r7, #4]
 8002654:	681b      	ldr	r3, [r3, #0]
 8002656:	68db      	ldr	r3, [r3, #12]
 8002658:	f003 0320 	and.w	r3, r3, #32
 800265c:	2b20      	cmp	r3, #32
 800265e:	d107      	bne.n	8002670 <HAL_TIM_IRQHandler+0x208>
 8002660:	687b      	ldr	r3, [r7, #4]
 8002662:	681b      	ldr	r3, [r3, #0]
 8002664:	f06f 0220 	mvn.w	r2, #32
 8002668:	611a      	str	r2, [r3, #16]
 800266a:	6878      	ldr	r0, [r7, #4]
 800266c:	f000 fa46 	bl	8002afc <HAL_TIMEx_CommutCallback>
 8002670:	bf00      	nop
 8002672:	3708      	adds	r7, #8
 8002674:	46bd      	mov	sp, r7
 8002676:	bd80      	pop	{r7, pc}

08002678 <HAL_TIM_ConfigClockSource>:
 8002678:	b580      	push	{r7, lr}
 800267a:	b084      	sub	sp, #16
 800267c:	af00      	add	r7, sp, #0
 800267e:	6078      	str	r0, [r7, #4]
 8002680:	6039      	str	r1, [r7, #0]
 8002682:	2300      	movs	r3, #0
 8002684:	73fb      	strb	r3, [r7, #15]
 8002686:	687b      	ldr	r3, [r7, #4]
 8002688:	f893 303c 	ldrb.w	r3, [r3, #60]	@ 0x3c
 800268c:	2b01      	cmp	r3, #1
 800268e:	d101      	bne.n	8002694 <HAL_TIM_ConfigClockSource+0x1c>
 8002690:	2302      	movs	r3, #2
 8002692:	e0b4      	b.n	80027fe <HAL_TIM_ConfigClockSource+0x186>
 8002694:	687b      	ldr	r3, [r7, #4]
 8002696:	2201      	movs	r2, #1
 8002698:	f883 203c 	strb.w	r2, [r3, #60]	@ 0x3c
 800269c:	687b      	ldr	r3, [r7, #4]
 800269e:	2202      	movs	r2, #2
 80026a0:	f883 203d 	strb.w	r2, [r3, #61]	@ 0x3d
 80026a4:	687b      	ldr	r3, [r7, #4]
 80026a6:	681b      	ldr	r3, [r3, #0]
 80026a8:	689b      	ldr	r3, [r3, #8]
 80026aa:	60bb      	str	r3, [r7, #8]
 80026ac:	68bb      	ldr	r3, [r7, #8]
 80026ae:	f023 0377 	bic.w	r3, r3, #119	@ 0x77
 80026b2:	60bb      	str	r3, [r7, #8]
 80026b4:	68bb      	ldr	r3, [r7, #8]
 80026b6:	f423 437f 	bic.w	r3, r3, #65280	@ 0xff00
 80026ba:	60bb      	str	r3, [r7, #8]
 80026bc:	687b      	ldr	r3, [r7, #4]
 80026be:	681b      	ldr	r3, [r3, #0]
 80026c0:	68ba      	ldr	r2, [r7, #8]
 80026c2:	609a      	str	r2, [r3, #8]
 80026c4:	683b      	ldr	r3, [r7, #0]
 80026c6:	681b      	ldr	r3, [r3, #0]
 80026c8:	f5b3 5f00 	cmp.w	r3, #8192	@ 0x2000
 80026cc:	d03e      	beq.n	800274c <HAL_TIM_ConfigClockSource+0xd4>
 80026ce:	f5b3 5f00 	cmp.w	r3, #8192	@ 0x2000
 80026d2:	f200 8087 	bhi.w	80027e4 <HAL_TIM_ConfigClockSource+0x16c>
 80026d6:	f5b3 5f80 	cmp.w	r3, #4096	@ 0x1000
 80026da:	f000 8086 	beq.w	80027ea <HAL_TIM_ConfigClockSource+0x172>
 80026de:	f5b3 5f80 	cmp.w	r3, #4096	@ 0x1000
 80026e2:	d87f      	bhi.n	80027e4 <HAL_TIM_ConfigClockSource+0x16c>
 80026e4:	2b70      	cmp	r3, #112	@ 0x70
 80026e6:	d01a      	beq.n	800271e <HAL_TIM_ConfigClockSource+0xa6>
 80026e8:	2b70      	cmp	r3, #112	@ 0x70
 80026ea:	d87b      	bhi.n	80027e4 <HAL_TIM_ConfigClockSource+0x16c>
 80026ec:	2b60      	cmp	r3, #96	@ 0x60
 80026ee:	d050      	beq.n	8002792 <HAL_TIM_ConfigClockSource+0x11a>
 80026f0:	2b60      	cmp	r3, #96	@ 0x60
 80026f2:	d877      	bhi.n	80027e4 <HAL_TIM_ConfigClockSource+0x16c>
 80026f4:	2b50      	cmp	r3, #80	@ 0x50
 80026f6:	d03c      	beq.n	8002772 <HAL_TIM_ConfigClockSource+0xfa>
 80026f8:	2b50      	cmp	r3, #80	@ 0x50
 80026fa:	d873      	bhi.n	80027e4 <HAL_TIM_ConfigClockSource+0x16c>
 80026fc:	2b40      	cmp	r3, #64	@ 0x40
 80026fe:	d058      	beq.n	80027b2 <HAL_TIM_ConfigClockSource+0x13a>
 8002700:	2b40      	cmp	r3, #64	@ 0x40
 8002702:	d86f      	bhi.n	80027e4 <HAL_TIM_ConfigClockSource+0x16c>
 8002704:	2b30      	cmp	r3, #48	@ 0x30
 8002706:	d064      	beq.n	80027d2 <HAL_TIM_ConfigClockSource+0x15a>
 8002708:	2b30      	cmp	r3, #48	@ 0x30
 800270a:	d86b      	bhi.n	80027e4 <HAL_TIM_ConfigClockSource+0x16c>
 800270c:	2b20      	cmp	r3, #32
 800270e:	d060      	beq.n	80027d2 <HAL_TIM_ConfigClockSource+0x15a>
 8002710:	2b20      	cmp	r3, #32
 8002712:	d867      	bhi.n	80027e4 <HAL_TIM_ConfigClockSource+0x16c>
 8002714:	2b00      	cmp	r3, #0
 8002716:	d05c      	beq.n	80027d2 <HAL_TIM_ConfigClockSource+0x15a>
 8002718:	2b10      	cmp	r3, #16
 800271a:	d05a      	beq.n	80027d2 <HAL_TIM_ConfigClockSource+0x15a>
 800271c:	e062      	b.n	80027e4 <HAL_TIM_ConfigClockSource+0x16c>
 800271e:	687b      	ldr	r3, [r7, #4]
 8002720:	6818      	ldr	r0, [r3, #0]
 8002722:	683b      	ldr	r3, [r7, #0]
 8002724:	6899      	ldr	r1, [r3, #8]
 8002726:	683b      	ldr	r3, [r7, #0]
 8002728:	685a      	ldr	r2, [r3, #4]
 800272a:	683b      	ldr	r3, [r7, #0]
 800272c:	68db      	ldr	r3, [r3, #12]
 800272e:	f000 f968 	bl	8002a02 <TIM_ETR_SetConfig>
 8002732:	687b      	ldr	r3, [r7, #4]
 8002734:	681b      	ldr	r3, [r3, #0]
 8002736:	689b      	ldr	r3, [r3, #8]
 8002738:	60bb      	str	r3, [r7, #8]
 800273a:	68bb      	ldr	r3, [r7, #8]
 800273c:	f043 0377 	orr.w	r3, r3, #119	@ 0x77
 8002740:	60bb      	str	r3, [r7, #8]
 8002742:	687b      	ldr	r3, [r7, #4]
 8002744:	681b      	ldr	r3, [r3, #0]
 8002746:	68ba      	ldr	r2, [r7, #8]
 8002748:	609a      	str	r2, [r3, #8]
 800274a:	e04f      	b.n	80027ec <HAL_TIM_ConfigClockSource+0x174>
 800274c:	687b      	ldr	r3, [r7, #4]
 800274e:	6818      	ldr	r0, [r3, #0]
 8002750:	683b      	ldr	r3, [r7, #0]
 8002752:	6899      	ldr	r1, [r3, #8]
 8002754:	683b      	ldr	r3, [r7, #0]
 8002756:	685a      	ldr	r2, [r3, #4]
 8002758:	683b      	ldr	r3, [r7, #0]
 800275a:	68db      	ldr	r3, [r3, #12]
 800275c:	f000 f951 	bl	8002a02 <TIM_ETR_SetConfig>
 8002760:	687b      	ldr	r3, [r7, #4]
 8002762:	681b      	ldr	r3, [r3, #0]
 8002764:	689a      	ldr	r2, [r3, #8]
 8002766:	687b      	ldr	r3, [r7, #4]
 8002768:	681b      	ldr	r3, [r3, #0]
 800276a:	f442 4280 	orr.w	r2, r2, #16384	@ 0x4000
 800276e:	609a      	str	r2, [r3, #8]
 8002770:	e03c      	b.n	80027ec <HAL_TIM_ConfigClockSource+0x174>
 8002772:	687b      	ldr	r3, [r7, #4]
 8002774:	6818      	ldr	r0, [r3, #0]
 8002776:	683b      	ldr	r3, [r7, #0]
 8002778:	6859      	ldr	r1, [r3, #4]
 800277a:	683b      	ldr	r3, [r7, #0]
 800277c:	68db      	ldr	r3, [r3, #12]
 800277e:	461a      	mov	r2, r3
 8002780:	f000 f8c8 	bl	8002914 <TIM_TI1_ConfigInputStage>
 8002784:	687b      	ldr	r3, [r7, #4]
 8002786:	681b      	ldr	r3, [r3, #0]
 8002788:	2150      	movs	r1, #80	@ 0x50
 800278a:	4618      	mov	r0, r3
 800278c:	f000 f91f 	bl	80029ce <TIM_ITRx_SetConfig>
 8002790:	e02c      	b.n	80027ec <HAL_TIM_ConfigClockSource+0x174>
 8002792:	687b      	ldr	r3, [r7, #4]
 8002794:	6818      	ldr	r0, [r3, #0]
 8002796:	683b      	ldr	r3, [r7, #0]
 8002798:	6859      	ldr	r1, [r3, #4]
 800279a:	683b      	ldr	r3, [r7, #0]
 800279c:	68db      	ldr	r3, [r3, #12]
 800279e:	461a      	mov	r2, r3
 80027a0:	f000 f8e6 	bl	8002970 <TIM_TI2_ConfigInputStage>
 80027a4:	687b      	ldr	r3, [r7, #4]
 80027a6:	681b      	ldr	r3, [r3, #0]
 80027a8:	2160      	movs	r1, #96	@ 0x60
 80027aa:	4618      	mov	r0, r3
 80027ac:	f000 f90f 	bl	80029ce <TIM_ITRx_SetConfig>
 80027b0:	e01c      	b.n	80027ec <HAL_TIM_ConfigClockSource+0x174>
 80027b2:	687b      	ldr	r3, [r7, #4]
 80027b4:	6818      	ldr	r0, [r3, #0]
 80027b6:	683b      	ldr	r3, [r7, #0]
 80027b8:	6859      	ldr	r1, [r3, #4]
 80027ba:	683b      	ldr	r3, [r7, #0]
 80027bc:	68db      	ldr	r3, [r3, #12]
 80027be:	461a      	mov	r2, r3
 80027c0:	f000 f8a8 	bl	8002914 <TIM_TI1_ConfigInputStage>
 80027c4:	687b      	ldr	r3, [r7, #4]
 80027c6:	681b      	ldr	r3, [r3, #0]
 80027c8:	2140      	movs	r1, #64	@ 0x40
 80027ca:	4618      	mov	r0, r3
 80027cc:	f000 f8ff 	bl	80029ce <TIM_ITRx_SetConfig>
 80027d0:	e00c      	b.n	80027ec <HAL_TIM_ConfigClockSource+0x174>
 80027d2:	687b      	ldr	r3, [r7, #4]
 80027d4:	681a      	ldr	r2, [r3, #0]
 80027d6:	683b      	ldr	r3, [r7, #0]
 80027d8:	681b      	ldr	r3, [r3, #0]
 80027da:	4619      	mov	r1, r3
 80027dc:	4610      	mov	r0, r2
 80027de:	f000 f8f6 	bl	80029ce <TIM_ITRx_SetConfig>
 80027e2:	e003      	b.n	80027ec <HAL_TIM_ConfigClockSource+0x174>
 80027e4:	2301      	movs	r3, #1
 80027e6:	73fb      	strb	r3, [r7, #15]
 80027e8:	e000      	b.n	80027ec <HAL_TIM_ConfigClockSource+0x174>
 80027ea:	bf00      	nop
 80027ec:	687b      	ldr	r3, [r7, #4]
 80027ee:	2201      	movs	r2, #1
 80027f0:	f883 203d 	strb.w	r2, [r3, #61]	@ 0x3d
 80027f4:	687b      	ldr	r3, [r7, #4]
 80027f6:	2200      	movs	r2, #0
 80027f8:	f883 203c 	strb.w	r2, [r3, #60]	@ 0x3c
 80027fc:	7bfb      	ldrb	r3, [r7, #15]
 80027fe:	4618      	mov	r0, r3
 8002800:	3710      	adds	r7, #16
 8002802:	46bd      	mov	sp, r7
 8002804:	bd80      	pop	{r7, pc}

08002806 <HAL_TIM_OC_DelayElapsedCallback>:
 8002806:	b480      	push	{r7}
 8002808:	b083      	sub	sp, #12
 800280a:	af00      	add	r7, sp, #0
 800280c:	6078      	str	r0, [r7, #4]
 800280e:	bf00      	nop
 8002810:	370c      	adds	r7, #12
 8002812:	46bd      	mov	sp, r7
 8002814:	bc80      	pop	{r7}
 8002816:	4770      	bx	lr

08002818 <HAL_TIM_IC_CaptureCallback>:
 8002818:	b480      	push	{r7}
 800281a:	b083      	sub	sp, #12
 800281c:	af00      	add	r7, sp, #0
 800281e:	6078      	str	r0, [r7, #4]
 8002820:	bf00      	nop
 8002822:	370c      	adds	r7, #12
 8002824:	46bd      	mov	sp, r7
 8002826:	bc80      	pop	{r7}
 8002828:	4770      	bx	lr

0800282a <HAL_TIM_PWM_PulseFinishedCallback>:
 800282a:	b480      	push	{r7}
 800282c:	b083      	sub	sp, #12
 800282e:	af00      	add	r7, sp, #0
 8002830:	6078      	str	r0, [r7, #4]
 8002832:	bf00      	nop
 8002834:	370c      	adds	r7, #12
 8002836:	46bd      	mov	sp, r7
 8002838:	bc80      	pop	{r7}
 800283a:	4770      	bx	lr

0800283c <HAL_TIM_TriggerCallback>:
 800283c:	b480      	push	{r7}
 800283e:	b083      	sub	sp, #12
 8002840:	af00      	add	r7, sp, #0
 8002842:	6078      	str	r0, [r7, #4]
 8002844:	bf00      	nop
 8002846:	370c      	adds	r7, #12
 8002848:	46bd      	mov	sp, r7
 800284a:	bc80      	pop	{r7}
 800284c:	4770      	bx	lr
	...

08002850 <TIM_Base_SetConfig>:
 8002850:	b480      	push	{r7}
 8002852:	b085      	sub	sp, #20
 8002854:	af00      	add	r7, sp, #0
 8002856:	6078      	str	r0, [r7, #4]
 8002858:	6039      	str	r1, [r7, #0]
 800285a:	687b      	ldr	r3, [r7, #4]
 800285c:	681b      	ldr	r3, [r3, #0]
 800285e:	60fb      	str	r3, [r7, #12]
 8002860:	687b      	ldr	r3, [r7, #4]
 8002862:	4a29      	ldr	r2, [pc, #164]	@ (8002908 <TIM_Base_SetConfig+0xb8>)
 8002864:	4293      	cmp	r3, r2
 8002866:	d00b      	beq.n	8002880 <TIM_Base_SetConfig+0x30>
 8002868:	687b      	ldr	r3, [r7, #4]
 800286a:	f1b3 4f80 	cmp.w	r3, #1073741824	@ 0x40000000
 800286e:	d007      	beq.n	8002880 <TIM_Base_SetConfig+0x30>
 8002870:	687b      	ldr	r3, [r7, #4]
 8002872:	4a26      	ldr	r2, [pc, #152]	@ (800290c <TIM_Base_SetConfig+0xbc>)
 8002874:	4293      	cmp	r3, r2
 8002876:	d003      	beq.n	8002880 <TIM_Base_SetConfig+0x30>
 8002878:	687b      	ldr	r3, [r7, #4]
 800287a:	4a25      	ldr	r2, [pc, #148]	@ (8002910 <TIM_Base_SetConfig+0xc0>)
 800287c:	4293      	cmp	r3, r2
 800287e:	d108      	bne.n	8002892 <TIM_Base_SetConfig+0x42>
 8002880:	68fb      	ldr	r3, [r7, #12]
 8002882:	f023 0370 	bic.w	r3, r3, #112	@ 0x70
 8002886:	60fb      	str	r3, [r7, #12]
 8002888:	683b      	ldr	r3, [r7, #0]
 800288a:	685b      	ldr	r3, [r3, #4]
 800288c:	68fa      	ldr	r2, [r7, #12]
 800288e:	4313      	orrs	r3, r2
 8002890:	60fb      	str	r3, [r7, #12]
 8002892:	687b      	ldr	r3, [r7, #4]
 8002894:	4a1c      	ldr	r2, [pc, #112]	@ (8002908 <TIM_Base_SetConfig+0xb8>)
 8002896:	4293      	cmp	r3, r2
 8002898:	d00b      	beq.n	80028b2 <TIM_Base_SetConfig+0x62>
 800289a:	687b      	ldr	r3, [r7, #4]
 800289c:	f1b3 4f80 	cmp.w	r3, #1073741824	@ 0x40000000
 80028a0:	d007      	beq.n	80028b2 <TIM_Base_SetConfig+0x62>
 80028a2:	687b      	ldr	r3, [r7, #4]
 80028a4:	4a19      	ldr	r2, [pc, #100]	@ (800290c <TIM_Base_SetConfig+0xbc>)
 80028a6:	4293      	cmp	r3, r2
 80028a8:	d003      	beq.n	80028b2 <TIM_Base_SetConfig+0x62>
 80028aa:	687b      	ldr	r3, [r7, #4]
 80028ac:	4a18      	ldr	r2, [pc, #96]	@ (8002910 <TIM_Base_SetConfig+0xc0>)
 80028ae:	4293      	cmp	r3, r2
 80028b0:	d108      	bne.n	80028c4 <TIM_Base_SetConfig+0x74>
 80028b2:	68fb      	ldr	r3, [r7, #12]
 80028b4:	f423 7340 	bic.w	r3, r3, #768	@ 0x300
 80028b8:	60fb      	str	r3, [r7, #12]
 80028ba:	683b      	ldr	r3, [r7, #0]
 80028bc:	68db      	ldr	r3, [r3, #12]
 80028be:	68fa      	ldr	r2, [r7, #12]
 80028c0:	4313      	orrs	r3, r2
 80028c2:	60fb      	str	r3, [r7, #12]
 80028c4:	68fb      	ldr	r3, [r7, #12]
 80028c6:	f023 0280 	bic.w	r2, r3, #128	@ 0x80
 80028ca:	683b      	ldr	r3, [r7, #0]
 80028cc:	695b      	ldr	r3, [r3, #20]
 80028ce:	4313      	orrs	r3, r2
 80028d0:	60fb      	str	r3, [r7, #12]
 80028d2:	687b      	ldr	r3, [r7, #4]
 80028d4:	68fa      	ldr	r2, [r7, #12]
 80028d6:	601a      	str	r2, [r3, #0]
 80028d8:	683b      	ldr	r3, [r7, #0]
 80028da:	689a      	ldr	r2, [r3, #8]
 80028dc:	687b      	ldr	r3, [r7, #4]
 80028de:	62da      	str	r2, [r3, #44]	@ 0x2c
 80028e0:	683b      	ldr	r3, [r7, #0]
 80028e2:	681a      	ldr	r2, [r3, #0]
 80028e4:	687b      	ldr	r3, [r7, #4]
 80028e6:	629a      	str	r2, [r3, #40]	@ 0x28
 80028e8:	687b      	ldr	r3, [r7, #4]
 80028ea:	4a07      	ldr	r2, [pc, #28]	@ (8002908 <TIM_Base_SetConfig+0xb8>)
 80028ec:	4293      	cmp	r3, r2
 80028ee:	d103      	bne.n	80028f8 <TIM_Base_SetConfig+0xa8>
 80028f0:	683b      	ldr	r3, [r7, #0]
 80028f2:	691a      	ldr	r2, [r3, #16]
 80028f4:	687b      	ldr	r3, [r7, #4]
 80028f6:	631a      	str	r2, [r3, #48]	@ 0x30
 80028f8:	687b      	ldr	r3, [r7, #4]
 80028fa:	2201      	movs	r2, #1
 80028fc:	615a      	str	r2, [r3, #20]
 80028fe:	bf00      	nop
 8002900:	3714      	adds	r7, #20
 8002902:	46bd      	mov	sp, r7
 8002904:	bc80      	pop	{r7}
 8002906:	4770      	bx	lr
 8002908:	40012c00 	.word	0x40012c00
 800290c:	40000400 	.word	0x40000400
 8002910:	40000800 	.word	0x40000800

08002914 <TIM_TI1_ConfigInputStage>:
 8002914:	b480      	push	{r7}
 8002916:	b087      	sub	sp, #28
 8002918:	af00      	add	r7, sp, #0
 800291a:	60f8      	str	r0, [r7, #12]
 800291c:	60b9      	str	r1, [r7, #8]
 800291e:	607a      	str	r2, [r7, #4]
 8002920:	68fb      	ldr	r3, [r7, #12]
 8002922:	6a1b      	ldr	r3, [r3, #32]
 8002924:	617b      	str	r3, [r7, #20]
 8002926:	68fb      	ldr	r3, [r7, #12]
 8002928:	6a1b      	ldr	r3, [r3, #32]
 800292a:	f023 0201 	bic.w	r2, r3, #1
 800292e:	68fb      	ldr	r3, [r7, #12]
 8002930:	621a      	str	r2, [r3, #32]
 8002932:	68fb      	ldr	r3, [r7, #12]
 8002934:	699b      	ldr	r3, [r3, #24]
 8002936:	613b      	str	r3, [r7, #16]
 8002938:	693b      	ldr	r3, [r7, #16]
 800293a:	f023 03f0 	bic.w	r3, r3, #240	@ 0xf0
 800293e:	613b      	str	r3, [r7, #16]
 8002940:	687b      	ldr	r3, [r7, #4]
 8002942:	011b      	lsls	r3, r3, #4
 8002944:	693a      	ldr	r2, [r7, #16]
 8002946:	4313      	orrs	r3, r2
 8002948:	613b      	str	r3, [r7, #16]
 800294a:	697b      	ldr	r3, [r7, #20]
 800294c:	f023 030a 	bic.w	r3, r3, #10
 8002950:	617b      	str	r3, [r7, #20]
 8002952:	697a      	ldr	r2, [r7, #20]
 8002954:	68bb      	ldr	r3, [r7, #8]
 8002956:	4313      	orrs	r3, r2
 8002958:	617b      	str	r3, [r7, #20]
 800295a:	68fb      	ldr	r3, [r7, #12]
 800295c:	693a      	ldr	r2, [r7, #16]
 800295e:	619a      	str	r2, [r3, #24]
 8002960:	68fb      	ldr	r3, [r7, #12]
 8002962:	697a      	ldr	r2, [r7, #20]
 8002964:	621a      	str	r2, [r3, #32]
 8002966:	bf00      	nop
 8002968:	371c      	adds	r7, #28
 800296a:	46bd      	mov	sp, r7
 800296c:	bc80      	pop	{r7}
 800296e:	4770      	bx	lr

08002970 <TIM_TI2_ConfigInputStage>:
 8002970:	b480      	push	{r7}
 8002972:	b087      	sub	sp, #28
 8002974:	af00      	add	r7, sp, #0
 8002976:	60f8      	str	r0, [r7, #12]
 8002978:	60b9      	str	r1, [r7, #8]
 800297a:	607a      	str	r2, [r7, #4]
 800297c:	68fb      	ldr	r3, [r7, #12]
 800297e:	6a1b      	ldr	r3, [r3, #32]
 8002980:	617b      	str	r3, [r7, #20]
 8002982:	68fb      	ldr	r3, [r7, #12]
 8002984:	6a1b      	ldr	r3, [r3, #32]
 8002986:	f023 0210 	bic.w	r2, r3, #16
 800298a:	68fb      	ldr	r3, [r7, #12]
 800298c:	621a      	str	r2, [r3, #32]
 800298e:	68fb      	ldr	r3, [r7, #12]
 8002990:	699b      	ldr	r3, [r3, #24]
 8002992:	613b      	str	r3, [r7, #16]
 8002994:	693b      	ldr	r3, [r7, #16]
 8002996:	f423 4370 	bic.w	r3, r3, #61440	@ 0xf000
 800299a:	613b      	str	r3, [r7, #16]
 800299c:	687b      	ldr	r3, [r7, #4]
 800299e:	031b      	lsls	r3, r3, #12
 80029a0:	693a      	ldr	r2, [r7, #16]
 80029a2:	4313      	orrs	r3, r2
 80029a4:	613b      	str	r3, [r7, #16]
 80029a6:	697b      	ldr	r3, [r7, #20]
 80029a8:	f023 03a0 	bic.w	r3, r3, #160	@ 0xa0
 80029ac:	617b      	str	r3, [r7, #20]
 80029ae:	68bb      	ldr	r3, [r7, #8]
 80029b0:	011b      	lsls	r3, r3, #4
 80029b2:	697a      	ldr	r2, [r7, #20]
 80029b4:	4313      	orrs	r3, r2
 80029b6:	617b      	str	r3, [r7, #20]
 80029b8:	68fb      	ldr	r3, [r7, #12]
 80029ba:	693a      	ldr	r2, [r7, #16]
 80029bc:	619a      	str	r2, [r3, #24]
 80029be:	68fb      	ldr	r3, [r7, #12]
 80029c0:	697a      	ldr	r2, [r7, #20]
 80029c2:	621a      	str	r2, [r3, #32]
 80029c4:	bf00      	nop
 80029c6:	371c      	adds	r7, #28
 80029c8:	46bd      	mov	sp, r7
 80029ca:	bc80      	pop	{r7}
 80029cc:	4770      	bx	lr

080029ce <TIM_ITRx_SetConfig>:
 80029ce:	b480      	push	{r7}
 80029d0:	b085      	sub	sp, #20
 80029d2:	af00      	add	r7, sp, #0
 80029d4:	6078      	str	r0, [r7, #4]
 80029d6:	6039      	str	r1, [r7, #0]
 80029d8:	687b      	ldr	r3, [r7, #4]
 80029da:	689b      	ldr	r3, [r3, #8]
 80029dc:	60fb      	str	r3, [r7, #12]
 80029de:	68fb      	ldr	r3, [r7, #12]
 80029e0:	f023 0370 	bic.w	r3, r3, #112	@ 0x70
 80029e4:	60fb      	str	r3, [r7, #12]
 80029e6:	683a      	ldr	r2, [r7, #0]
 80029e8:	68fb      	ldr	r3, [r7, #12]
 80029ea:	4313      	orrs	r3, r2
 80029ec:	f043 0307 	orr.w	r3, r3, #7
 80029f0:	60fb      	str	r3, [r7, #12]
 80029f2:	687b      	ldr	r3, [r7, #4]
 80029f4:	68fa      	ldr	r2, [r7, #12]
 80029f6:	609a      	str	r2, [r3, #8]
 80029f8:	bf00      	nop
 80029fa:	3714      	adds	r7, #20
 80029fc:	46bd      	mov	sp, r7
 80029fe:	bc80      	pop	{r7}
 8002a00:	4770      	bx	lr

08002a02 <TIM_ETR_SetConfig>:
 8002a02:	b480      	push	{r7}
 8002a04:	b087      	sub	sp, #28
 8002a06:	af00      	add	r7, sp, #0
 8002a08:	60f8      	str	r0, [r7, #12]
 8002a0a:	60b9      	str	r1, [r7, #8]
 8002a0c:	607a      	str	r2, [r7, #4]
 8002a0e:	603b      	str	r3, [r7, #0]
 8002a10:	68fb      	ldr	r3, [r7, #12]
 8002a12:	689b      	ldr	r3, [r3, #8]
 8002a14:	617b      	str	r3, [r7, #20]
 8002a16:	697b      	ldr	r3, [r7, #20]
 8002a18:	f423 437f 	bic.w	r3, r3, #65280	@ 0xff00
 8002a1c:	617b      	str	r3, [r7, #20]
 8002a1e:	683b      	ldr	r3, [r7, #0]
 8002a20:	021a      	lsls	r2, r3, #8
 8002a22:	687b      	ldr	r3, [r7, #4]
 8002a24:	431a      	orrs	r2, r3
 8002a26:	68bb      	ldr	r3, [r7, #8]
 8002a28:	4313      	orrs	r3, r2
 8002a2a:	697a      	ldr	r2, [r7, #20]
 8002a2c:	4313      	orrs	r3, r2
 8002a2e:	617b      	str	r3, [r7, #20]
 8002a30:	68fb      	ldr	r3, [r7, #12]
 8002a32:	697a      	ldr	r2, [r7, #20]
 8002a34:	609a      	str	r2, [r3, #8]
 8002a36:	bf00      	nop
 8002a38:	371c      	adds	r7, #28
 8002a3a:	46bd      	mov	sp, r7
 8002a3c:	bc80      	pop	{r7}
 8002a3e:	4770      	bx	lr

08002a40 <HAL_TIMEx_MasterConfigSynchronization>:
 8002a40:	b480      	push	{r7}
 8002a42:	b085      	sub	sp, #20
 8002a44:	af00      	add	r7, sp, #0
 8002a46:	6078      	str	r0, [r7, #4]
 8002a48:	6039      	str	r1, [r7, #0]
 8002a4a:	687b      	ldr	r3, [r7, #4]
 8002a4c:	f893 303c 	ldrb.w	r3, [r3, #60]	@ 0x3c
 8002a50:	2b01      	cmp	r3, #1
 8002a52:	d101      	bne.n	8002a58 <HAL_TIMEx_MasterConfigSynchronization+0x18>
 8002a54:	2302      	movs	r3, #2
 8002a56:	e046      	b.n	8002ae6 <HAL_TIMEx_MasterConfigSynchronization+0xa6>
 8002a58:	687b      	ldr	r3, [r7, #4]
 8002a5a:	2201      	movs	r2, #1
 8002a5c:	f883 203c 	strb.w	r2, [r3, #60]	@ 0x3c
 8002a60:	687b      	ldr	r3, [r7, #4]
 8002a62:	2202      	movs	r2, #2
 8002a64:	f883 203d 	strb.w	r2, [r3, #61]	@ 0x3d
 8002a68:	687b      	ldr	r3, [r7, #4]
 8002a6a:	681b      	ldr	r3, [r3, #0]
 8002a6c:	685b      	ldr	r3, [r3, #4]
 8002a6e:	60fb      	str	r3, [r7, #12]
 8002a70:	687b      	ldr	r3, [r7, #4]
 8002a72:	681b      	ldr	r3, [r3, #0]
 8002a74:	689b      	ldr	r3, [r3, #8]
 8002a76:	60bb      	str	r3, [r7, #8]
 8002a78:	68fb      	ldr	r3, [r7, #12]
 8002a7a:	f023 0370 	bic.w	r3, r3, #112	@ 0x70
 8002a7e:	60fb      	str	r3, [r7, #12]
 8002a80:	683b      	ldr	r3, [r7, #0]
 8002a82:	681b      	ldr	r3, [r3, #0]
 8002a84:	68fa      	ldr	r2, [r7, #12]
 8002a86:	4313      	orrs	r3, r2
 8002a88:	60fb      	str	r3, [r7, #12]
 8002a8a:	687b      	ldr	r3, [r7, #4]
 8002a8c:	681b      	ldr	r3, [r3, #0]
 8002a8e:	68fa      	ldr	r2, [r7, #12]
 8002a90:	605a      	str	r2, [r3, #4]
 8002a92:	687b      	ldr	r3, [r7, #4]
 8002a94:	681b      	ldr	r3, [r3, #0]
 8002a96:	4a16      	ldr	r2, [pc, #88]	@ (8002af0 <HAL_TIMEx_MasterConfigSynchronization+0xb0>)
 8002a98:	4293      	cmp	r3, r2
 8002a9a:	d00e      	beq.n	8002aba <HAL_TIMEx_MasterConfigSynchronization+0x7a>
 8002a9c:	687b      	ldr	r3, [r7, #4]
 8002a9e:	681b      	ldr	r3, [r3, #0]
 8002aa0:	f1b3 4f80 	cmp.w	r3, #1073741824	@ 0x40000000
 8002aa4:	d009      	beq.n	8002aba <HAL_TIMEx_MasterConfigSynchronization+0x7a>
 8002aa6:	687b      	ldr	r3, [r7, #4]
 8002aa8:	681b      	ldr	r3, [r3, #0]
 8002aaa:	4a12      	ldr	r2, [pc, #72]	@ (8002af4 <HAL_TIMEx_MasterConfigSynchronization+0xb4>)
 8002aac:	4293      	cmp	r3, r2
 8002aae:	d004      	beq.n	8002aba <HAL_TIMEx_MasterConfigSynchronization+0x7a>
 8002ab0:	687b      	ldr	r3, [r7, #4]
 8002ab2:	681b      	ldr	r3, [r3, #0]
 8002ab4:	4a10      	ldr	r2, [pc, #64]	@ (8002af8 <HAL_TIMEx_MasterConfigSynchronization+0xb8>)
 8002ab6:	4293      	cmp	r3, r2
 8002ab8:	d10c      	bne.n	8002ad4 <HAL_TIMEx_MasterConfigSynchronization+0x94>
 8002aba:	68bb      	ldr	r3, [r7, #8]
 8002abc:	f023 0380 	bic.w	r3, r3, #128	@ 0x80
 8002ac0:	60bb      	str	r3, [r7, #8]
 8002ac2:	683b      	ldr	r3, [r7, #0]
 8002ac4:	685b      	ldr	r3, [r3, #4]
 8002ac6:	68ba      	ldr	r2, [r7, #8]
 8002ac8:	4313      	orrs	r3, r2
 8002aca:	60bb      	str	r3, [r7, #8]
 8002acc:	687b      	ldr	r3, [r7, #4]
 8002ace:	681b      	ldr	r3, [r3, #0]
 8002ad0:	68ba      	ldr	r2, [r7, #8]
 8002ad2:	609a      	str	r2, [r3, #8]
 8002ad4:	687b      	ldr	r3, [r7, #4]
 8002ad6:	2201      	movs	r2, #1
 8002ad8:	f883 203d 	strb.w	r2, [r3, #61]	@ 0x3d
 8002adc:	687b      	ldr	r3, [r7, #4]
 8002ade:	2200      	movs	r2, #0
 8002ae0:	f883 203c 	strb.w	r2, [r3, #60]	@ 0x3c
 8002ae4:	2300      	movs	r3, #0
 8002ae6:	4618      	mov	r0, r3
 8002ae8:	3714      	adds	r7, #20
 8002aea:	46bd      	mov	sp, r7
 8002aec:	bc80      	pop	{r7}
 8002aee:	4770      	bx	lr
 8002af0:	40012c00 	.word	0x40012c00
 8002af4:	40000400 	.word	0x40000400
 8002af8:	40000800 	.word	0x40000800

08002afc <HAL_TIMEx_CommutCallback>:
 8002afc:	b480      	push	{r7}
 8002afe:	b083      	sub	sp, #12
 8002b00:	af00      	add	r7, sp, #0
 8002b02:	6078      	str	r0, [r7, #4]
 8002b04:	bf00      	nop
 8002b06:	370c      	adds	r7, #12
 8002b08:	46bd      	mov	sp, r7
 8002b0a:	bc80      	pop	{r7}
 8002b0c:	4770      	bx	lr

08002b0e <HAL_TIMEx_BreakCallback>:
 8002b0e:	b480      	push	{r7}
 8002b10:	b083      	sub	sp, #12
 8002b12:	af00      	add	r7, sp, #0
 8002b14:	6078      	str	r0, [r7, #4]
 8002b16:	bf00      	nop
 8002b18:	370c      	adds	r7, #12
 8002b1a:	46bd      	mov	sp, r7
 8002b1c:	bc80      	pop	{r7}
 8002b1e:	4770      	bx	lr

08002b20 <memset>:
 8002b20:	4603      	mov	r3, r0
 8002b22:	4402      	add	r2, r0
 8002b24:	4293      	cmp	r3, r2
 8002b26:	d100      	bne.n	8002b2a <memset+0xa>
 8002b28:	4770      	bx	lr
 8002b2a:	f803 1b01 	strb.w	r1, [r3], #1
 8002b2e:	e7f9      	b.n	8002b24 <memset+0x4>

08002b30 <__libc_init_array>:
 8002b30:	b570      	push	{r4, r5, r6, lr}
 8002b32:	2600      	movs	r6, #0
 8002b34:	4d0c      	ldr	r5, [pc, #48]	@ (8002b68 <__libc_init_array+0x38>)
 8002b36:	4c0d      	ldr	r4, [pc, #52]	@ (8002b6c <__libc_init_array+0x3c>)
 8002b38:	1b64      	subs	r4, r4, r5
 8002b3a:	10a4      	asrs	r4, r4, #2
 8002b3c:	42a6      	cmp	r6, r4
 8002b3e:	d109      	bne.n	8002b54 <__libc_init_array+0x24>
 8002b40:	f000 f81a 	bl	8002b78 <_init>
 8002b44:	2600      	movs	r6, #0
 8002b46:	4d0a      	ldr	r5, [pc, #40]	@ (8002b70 <__libc_init_array+0x40>)
 8002b48:	4c0a      	ldr	r4, [pc, #40]	@ (8002b74 <__libc_init_array+0x44>)
 8002b4a:	1b64      	subs	r4, r4, r5
 8002b4c:	10a4      	asrs	r4, r4, #2
 8002b4e:	42a6      	cmp	r6, r4
 8002b50:	d105      	bne.n	8002b5e <__libc_init_array+0x2e>
 8002b52:	bd70      	pop	{r4, r5, r6, pc}
 8002b54:	f855 3b04 	ldr.w	r3, [r5], #4
 8002b58:	4798      	blx	r3
 8002b5a:	3601      	adds	r6, #1
 8002b5c:	e7ee      	b.n	8002b3c <__libc_init_array+0xc>
 8002b5e:	f855 3b04 	ldr.w	r3, [r5], #4
 8002b62:	4798      	blx	r3
 8002b64:	3601      	adds	r6, #1
 8002b66:	e7f2      	b.n	8002b4e <__libc_init_array+0x1e>
 8002b68:	08002bc8 	.word	0x08002bc8
 8002b6c:	08002bc8 	.word	0x08002bc8
 8002b70:	08002bc8 	.word	0x08002bc8
 8002b74:	08002bcc 	.word	0x08002bcc

08002b78 <_init>:
 8002b78:	b5f8      	push	{r3, r4, r5, r6, r7, lr}
 8002b7a:	bf00      	nop
 8002b7c:	bcf8      	pop	{r3, r4, r5, r6, r7}
 8002b7e:	bc08      	pop	{r3}
 8002b80:	469e      	mov	lr, r3
 8002b82:	4770      	bx	lr

08002b84 <_fini>:
 8002b84:	b5f8      	push	{r3, r4, r5, r6, r7, lr}
 8002b86:	bf00      	nop
 8002b88:	bcf8      	pop	{r3, r4, r5, r6, r7}
 8002b8a:	bc08      	pop	{r3}
 8002b8c:	469e      	mov	lr, r3
 8002b8e:	4770      	bx	lr
